 binding

 Timestamp is 5d516560 (Mon Aug 12 21:10:56 2019)

 Preferred load address is 0000000180000000

 Start         Length     Name                   Class
 0001:00000000 0001b180H .text$mn                CODE
 0001:0001b180 00000020H .text$mn$00             CODE
 0001:0001b1a0 000003d0H .text$x                 CODE
 0002:00000000 00000258H .idata$5                DATA
 0002:00000258 00000010H .00cfg                  DATA
 0002:00000268 00000008H .CRT$XCA                DATA
 0002:00000270 00000008H .CRT$XCU                DATA
 0002:00000278 00000008H .CRT$XCZ                DATA
 0002:00000280 00000008H .CRT$XIA                DATA
 0002:00000288 00000018H .CRT$XIC                DATA
 0002:000002a0 00000008H .CRT$XIZ                DATA
 0002:000002a8 00000008H .CRT$XPA                DATA
 0002:000002b0 00000010H .CRT$XPX                DATA
 0002:000002c0 00000008H .CRT$XPXA               DATA
 0002:000002c8 00000008H .CRT$XPZ                DATA
 0002:000002d0 00000008H .CRT$XTA                DATA
 0002:000002d8 00000008H .CRT$XTZ                DATA
 0002:000002e0 00000000H .gfids$y                DATA
 0002:000002e0 00009250H .rdata                  DATA
 0002:00009530 00000274H .rdata$r                DATA
 0002:000097a4 000003b4H .rdata$zzzdbg           DATA
 0002:00009b58 00000008H .rtc$IAA                DATA
 0002:00009b60 00000008H .rtc$IZZ                DATA
 0002:00009b68 00000008H .rtc$TAA                DATA
 0002:00009b70 00000008H .rtc$TZZ                DATA
 0002:00009b78 00001678H .xdata                  DATA
 0002:0000b1f0 0000014cH .xdata$x                DATA
 0002:0000b33c 00000020H .didat$2                DATA
 0002:0000b35c 00000024H .didat$3                DATA
 0002:0000b380 00000168H .didat$4                DATA
 0002:0000b4e8 00000c20H .didat$6                DATA
 0002:0000c108 00000168H .didat$7                DATA
 0002:0000c270 00000054H .edata                  DATA
 0002:0000c2c4 00000014H .idata$2                DATA
 0002:0000c2d8 00000018H .idata$3                DATA
 0002:0000c2f0 00000258H .idata$4                DATA
 0002:0000c548 00000574H .idata$6                DATA
 0003:00000000 00000990H .data                   DATA
 0003:00000990 000000c8H .data$r                 DATA
 0003:00000a58 00000168H .didat$5                DATA
 0003:00000bc0 00001230H .bss                    DATA
 0004:00000000 00001914H .pdata                  DATA
 0005:00000000 00000060H .rsrc$01                DATA
 0005:00000060 00000180H .rsrc$02                DATA

  Address         Publics by Value              Rva+Base               Lib:Object

 0000:00000000       __guard_fids_count         0000000000000000     <absolute>
 0000:00000000       __guard_longjmp_count      0000000000000000     <absolute>
 0000:00000000       __hybrid_code_map          0000000000000000     <absolute>
 0000:00000000       __guard_iat_count          0000000000000000     <absolute>
 0000:00000000       __guard_longjmp_table      0000000000000000     <absolute>
 0000:00000000       __volatile_metadata        0000000000000000     <absolute>
 0000:00000000       __guard_iat_table          0000000000000000     <absolute>
 0000:00000000       __hybrid_code_map_count    0000000000000000     <absolute>
 0000:00000000       __enclave_config           0000000000000000     <absolute>
 0000:00000000       ___safe_se_handler_count   0000000000000000     <absolute>
 0000:00000000       ___safe_se_handler_table   0000000000000000     <absolute>
 0000:00000000       __guard_fids_table         0000000000000000     <absolute>
 0000:00000000       __hybrid_auxiliary_iat     0000000000000000     <absolute>
 0000:00000000       __dynamic_value_reloc_table 0000000000000000     <absolute>
 0000:00000100       __guard_flags              0000000000000100     <absolute>
 0000:00000000       __ImageBase                0000000180000000     <linker-defined>
 0001:00000000       __local_stdio_printf_options 0000000180001000 f i binding.obj
 0001:00000010       _snprintf_s                0000000180001010 f i binding.obj
 0001:00000160       ?ForceSet@Nan@@YA?AV?$Maybe@_N@1@V?$Local@VObject@v8@@@v8@@V?$Local@VValue@v8@@@4@1W4PropertyAttribute@4@@Z 0000000180001160 f i binding.obj
 0001:00000240       ?ThrowError@Nan@@YAXPEBD@Z 0000000180001240 f i binding.obj
 0001:000002d0       ?ThrowTypeError@Nan@@YAXPEBD@Z 00000001800012d0 f i binding.obj
 0001:000006f0       _guard_check_icall_nop     00000001800016f0 f   LIBCMT:guard_support.obj
 0001:00001950       ?init@@YAXV?$Local@VObject@v8@@@v8@@@Z 0000000180002950 f   binding.obj
 0001:00004030       ??$SetMethod@VObject@v8@@VLocal@2@@Nan@@YAXV?$Local@VObject@v8@@@v8@@PEBDP6AXAEBV?$FunctionCallbackInfo@VValue@v8@@@0@@Z@Z 0000000180005030 f i binding.obj
 0001:00004270       ??$invokeparameter@$00@?$WeakCallbackInfo@X@Nan@@CAXAEBV?$WeakCallbackInfo@V?$WeakCallbackInfo@X@Nan@@@v8@@@Z 0000000180005270 f i binding.obj
 0001:000042c0       ??$SetMethodAux@V?$Local@VObject@v8@@@v8@@@imp@Nan@@YAXV?$Local@VObject@v8@@@v8@@V?$Local@VString@v8@@@3@V?$Local@VFunctionTemplate@v8@@@3@ZZ 00000001800052c0 f i binding.obj
 0001:00004390       ??$invokeparameter@$0A@@?$WeakCallbackInfo@X@Nan@@CAXAEBV?$WeakCallbackInfo@V?$WeakCallbackInfo@X@Nan@@@v8@@@Z 0000000180005390 f i binding.obj
 0001:0000440c       __imp_load_?Value@External@v8@@QEBAPEAXXZ 000000018000540c f   node:node.exe
 0001:00004418       __tailMerge_node_exe       0000000180005418     node:node.exe
 0001:00004491       __imp_load_?New@External@v8@@SA?AV?$Local@VExternal@v8@@@2@PEAVIsolate@2@PEAX@Z 0000000180005491 f   node:node.exe
 0001:0000449d       __imp_load_?NewFromUnsigned@Integer@v8@@SA?AV?$Local@VInteger@v8@@@2@PEAVIsolate@2@I@Z 000000018000549d f   node:node.exe
 0001:000044a9       __imp_load_?ThrowException@Isolate@v8@@QEAA?AV?$Local@VValue@v8@@@2@V32@@Z 00000001800054a9 f   node:node.exe
 0001:000044b5       __imp_load_?GetCurrentContext@Isolate@v8@@QEAA?AV?$Local@VContext@v8@@@2@XZ 00000001800054b5 f   node:node.exe
 0001:000044c1       __imp_load_?GetCurrent@Isolate@v8@@SAPEAV12@XZ 00000001800054c1 f   node:node.exe
 0001:000044cd       __imp_load_?CreateHandle@HandleScope@v8@@KAPEAPEAVObject@internal@2@PEAVIsolate@42@PEAV342@@Z 00000001800054cd f   node:node.exe
 0001:000044d9       __imp_load_?CreateHandle@HandleScope@v8@@CAPEAPEAVObject@internal@2@PEAVHeapObject@42@PEAV342@@Z 00000001800054d9 f   node:node.exe
 0001:000044e5       __imp_load_??1HandleScope@v8@@QEAA@XZ 00000001800054e5 f   node:node.exe
 0001:000044f1       __imp_load_??0HandleScope@v8@@QEAA@PEAVIsolate@1@@Z 00000001800054f1 f   node:node.exe
 0001:000044fd       __imp_load_?Error@Exception@v8@@SA?AV?$Local@VValue@v8@@@2@V?$Local@VString@v8@@@2@@Z 00000001800054fd f   node:node.exe
 0001:00004509       __imp_load_?TypeError@Exception@v8@@SA?AV?$Local@VValue@v8@@@2@V?$Local@VString@v8@@@2@@Z 0000000180005509 f   node:node.exe
 0001:00004515       __imp_load_?SetClassName@FunctionTemplate@v8@@QEAAXV?$Local@VString@v8@@@2@@Z 0000000180005515 f   node:node.exe
 0001:00004521       __imp_load_?GetFunction@FunctionTemplate@v8@@QEAA?AV?$MaybeLocal@VFunction@v8@@@2@V?$Local@VContext@v8@@@2@@Z 0000000180005521 f   node:node.exe
 0001:0000452d       __imp_load_?New@FunctionTemplate@v8@@SA?AV?$Local@VFunctionTemplate@v8@@@2@PEAVIsolate@2@P6AXAEBV?$FunctionCallbackInfo@VValue@v8@@@2@@ZV?$Local@VValue@v8@@@2@V?$Local@VSignature@v8@@@2@HW4ConstructorBehavior@2@W4SideEffectType@2@@Z 000000018000552d f   node:node.exe
 0001:00004539       __imp_load_?ToLocalEmpty@V8@v8@@CAXXZ 0000000180005539 f   node:node.exe
 0001:00004545       __imp_load_?MakeWeak@V8@v8@@CAXPEAPEAVObject@internal@2@PEAXP6AXAEBV?$WeakCallbackInfo@X@2@@ZW4WeakCallbackType@2@@Z 0000000180005545 f   node:node.exe
 0001:00004551       __imp_load_?DisposeGlobal@V8@v8@@CAXPEAPEAVObject@internal@2@@Z 0000000180005551 f   node:node.exe
 0001:0000455d       __imp_load_?GlobalizeReference@V8@v8@@CAPEAPEAVObject@internal@2@PEAVIsolate@42@PEAPEAV342@@Z 000000018000555d f   node:node.exe
 0001:00004569       __imp_load_?Uint32Value@Value@v8@@QEBAIXZ 0000000180005569 f   node:node.exe
 0001:00004575       __imp_load_?IntegerValue@Value@v8@@QEBA?AV?$Maybe@_J@2@V?$Local@VContext@v8@@@2@@Z 0000000180005575 f   node:node.exe
 0001:00004581       __imp_load_?BooleanValue@Value@v8@@QEBA_NXZ 0000000180005581 f   node:node.exe
 0001:0000458d       __imp_load_?ToUint32@Value@v8@@QEBA?AV?$MaybeLocal@VUint32@v8@@@2@V?$Local@VContext@v8@@@2@@Z 000000018000558d f   node:node.exe
 0001:00004599       __imp_load_?IsNumber@Value@v8@@QEBA_NXZ 0000000180005599 f   node:node.exe
 0001:000045a5       __imp_load_?IsName@Value@v8@@QEBA_NXZ 00000001800055a5 f   node:node.exe
 0001:000045b1       __imp_load_?Escape@EscapableHandleScope@v8@@AEAAPEAPEAVObject@internal@2@PEAPEAV342@@Z 00000001800055b1 f   node:node.exe
 0001:000045bd       __imp_load_??0EscapableHandleScope@v8@@QEAA@PEAVIsolate@1@@Z 00000001800055bd f   node:node.exe
 0001:000045c9       __imp_load_??1Utf8Value@String@v8@@QEAA@XZ 00000001800055c9 f   node:node.exe
 0001:000045d5       __imp_load_??0Utf8Value@String@v8@@QEAA@V?$Local@VValue@v8@@@2@@Z 00000001800055d5 f   node:node.exe
 0001:000045e1       __imp_load_?NewFromUtf8@String@v8@@SA?AV?$MaybeLocal@VString@v8@@@2@PEAVIsolate@2@PEBDW4NewStringType@2@H@Z 00000001800055e1 f   node:node.exe
 0001:000045ed       __imp_load_?New@Number@v8@@SA?AV?$Local@VNumber@v8@@@2@PEAVIsolate@2@N@Z 00000001800055ed f   node:node.exe
 0001:000045f9       __imp_load_?SlowGetInternalField@Object@v8@@AEAA?AV?$Local@VValue@v8@@@2@H@Z 00000001800055f9 f   node:node.exe
 0001:00004605       __imp_load_?New@Object@v8@@SA?AV?$Local@VObject@v8@@@2@PEAVIsolate@2@@Z 0000000180005605 f   node:node.exe
 0001:00004611       __imp_load_?SetInternalField@Object@v8@@QEAAXHV?$Local@VValue@v8@@@2@@Z 0000000180005611 f   node:node.exe
 0001:0000461d       __imp_load_?DefineOwnProperty@Object@v8@@QEAA?AV?$Maybe@_N@2@V?$Local@VContext@v8@@@2@V?$Local@VName@v8@@@2@V?$Local@VValue@v8@@@2@W4PropertyAttribute@2@@Z 000000018000561d f   node:node.exe
 0001:00004629       __imp_load_?Set@Object@v8@@QEAA_NV?$Local@VValue@v8@@@2@0@Z 0000000180005629 f   node:node.exe
 0001:00004635       __imp_load_?Set@Object@v8@@QEAA?AV?$Maybe@_N@2@V?$Local@VContext@v8@@@2@V?$Local@VValue@v8@@@2@1@Z 0000000180005635 f   node:node.exe
 0001:00004641       __imp_load_?SetInternalFieldCount@ObjectTemplate@v8@@QEAAXH@Z 0000000180005641 f   node:node.exe
 0001:0000464d       __imp_load_?NewInstance@ObjectTemplate@v8@@QEAA?AV?$MaybeLocal@VObject@v8@@@2@V?$Local@VContext@v8@@@2@@Z 000000018000564d f   node:node.exe
 0001:00004659       __imp_load_?New@ObjectTemplate@v8@@SA?AV?$Local@VObjectTemplate@v8@@@2@PEAVIsolate@2@V?$Local@VFunctionTemplate@v8@@@2@@Z 0000000180005659 f   node:node.exe
 0001:00004665       __imp_load_node_module_register 0000000180005665 f   node:node.exe
 0001:00004671       __imp_load_?HasInstance@Buffer@node@@YA_NV?$Local@VValue@v8@@@v8@@@Z 0000000180005671 f   node:node.exe
 0001:0000467d       __imp_load_?New@Buffer@node@@YA?AV?$MaybeLocal@VObject@v8@@@v8@@PEAVIsolate@4@PEAD_KP6AX1PEAX@Z3@Z 000000018000567d f   node:node.exe
 0001:00004689       __imp_load_?Data@Buffer@node@@YAPEADV?$Local@VObject@v8@@@v8@@@Z 0000000180005689 f   node:node.exe
 0001:000046b0       __security_check_cookie    00000001800056b0 f   LIBCMT:_amdsecgs_.obj
 0001:000046d4       ??2@YAPEAX_K@Z             00000001800056d4 f   LIBCMT:new_scalar.obj
 0001:00004710       ??3@YAXPEAX_K@Z            0000000180005710 f   LIBCMT:delete_scalar_size.obj
 0001:00004a48       _DllMainCRTStartup         0000000180005a48 f   LIBCMT:dll_dllmain.obj
 0001:00004a88       __raise_securityfailure    0000000180005a88 f   LIBCMT:gs_report.obj
 0001:00004abc       __report_gsfailure         0000000180005abc f   LIBCMT:gs_report.obj
 0001:00004b90       __report_rangecheckfailure 0000000180005b90 f   LIBCMT:gs_report.obj
 0001:00004ba4       __report_securityfailure   0000000180005ba4 f   LIBCMT:gs_report.obj
 0001:00004d24       ??0bad_alloc@std@@QEAA@AEBV01@@Z 0000000180005d24 f i LIBCMT:throw_bad_alloc.obj
 0001:00004d64       ??0bad_alloc@std@@QEAA@XZ  0000000180005d64 f i LIBCMT:throw_bad_alloc.obj
 0001:00004d84       ??0bad_array_new_length@std@@QEAA@AEBV01@@Z 0000000180005d84 f i LIBCMT:throw_bad_alloc.obj
 0001:00004dc4       ??0bad_array_new_length@std@@QEAA@XZ 0000000180005dc4 f i LIBCMT:throw_bad_alloc.obj
 0001:00004de4       ??0exception@std@@QEAA@AEBV01@@Z 0000000180005de4 f i LIBCMT:throw_bad_alloc.obj
 0001:00004e1c       ??1bad_array_new_length@std@@UEAA@XZ 0000000180005e1c f i LIBCMT:throw_bad_alloc.obj
 0001:00004e1c       ??1bad_exception@std@@UEAA@XZ 0000000180005e1c f i libvcruntime:frame.obj
 0001:00004e1c       ??1bad_alloc@std@@UEAA@XZ  0000000180005e1c f i LIBCMT:throw_bad_alloc.obj
 0001:00004e30       ??_Gexception@std@@UEAAPEAXI@Z 0000000180005e30 f i LIBCMT:throw_bad_alloc.obj
 0001:00004e30       ??_Ebad_alloc@std@@UEAAPEAXI@Z 0000000180005e30 f i LIBCMT:throw_bad_alloc.obj
 0001:00004e30       ??_Eexception@std@@UEAAPEAXI@Z 0000000180005e30 f i LIBCMT:throw_bad_alloc.obj
 0001:00004e30       ??_Gbad_alloc@std@@UEAAPEAXI@Z 0000000180005e30 f i LIBCMT:throw_bad_alloc.obj
 0001:00004e30       ??_Gbad_exception@std@@UEAAPEAXI@Z 0000000180005e30 f i libvcruntime:frame.obj
 0001:00004e30       ??_Ebad_exception@std@@UEAAPEAXI@Z 0000000180005e30 f i libvcruntime:frame.obj
 0001:00004e30       ??_Gbad_array_new_length@std@@UEAAPEAXI@Z 0000000180005e30 f i LIBCMT:throw_bad_alloc.obj
 0001:00004e30       ??_Ebad_array_new_length@std@@UEAAPEAXI@Z 0000000180005e30 f i LIBCMT:throw_bad_alloc.obj
 0001:00004e74       ?__scrt_throw_std_bad_alloc@@YAXXZ 0000000180005e74 f   LIBCMT:throw_bad_alloc.obj
 0001:00004e94       ?__scrt_throw_std_bad_array_new_length@@YAXXZ 0000000180005e94 f   LIBCMT:throw_bad_alloc.obj
 0001:00004eb4       ?what@exception@std@@UEBAPEBDXZ 0000000180005eb4 f i LIBCMT:throw_bad_alloc.obj
 0001:00004ec8       ??3@YAXPEAX@Z              0000000180005ec8 f   LIBCMT:delete_scalar.obj
 0001:00004ed0       __security_init_cookie     0000000180005ed0 f   LIBCMT:gs_support.obj
 0001:00004f7c       DllMain                    0000000180005f7c f   LIBCMT:dll_dllmain_stub.obj
 0001:00004f7c       _get_startup_argv_mode     0000000180005f7c f   LIBCMT:argv_mode.obj
 0001:00004f84       ?__scrt_initialize_type_info@@YAXXZ 0000000180005f84 f   LIBCMT:tncleanup.obj
 0001:00004f94       ?__scrt_uninitialize_type_info@@YAXXZ 0000000180005f94 f   LIBCMT:tncleanup.obj
 0001:00004fa0       __local_stdio_scanf_options 0000000180005fa0 f i LIBCMT:default_local_stdio_options.obj
 0001:00004fa8       __scrt_initialize_default_local_stdio_options 0000000180005fa8 f   LIBCMT:default_local_stdio_options.obj
 0001:00004fc4       __scrt_acquire_startup_lock 0000000180005fc4 f   LIBCMT:utility.obj
 0001:00005000       __scrt_dllmain_after_initialize_c 0000000180006000 f   LIBCMT:utility.obj
 0001:00005034       __scrt_dllmain_before_initialize_c 0000000180006034 f   LIBCMT:utility.obj
 0001:0000504c       __scrt_dllmain_crt_thread_attach 000000018000604c f   LIBCMT:utility.obj
 0001:00005074       __scrt_dllmain_crt_thread_detach 0000000180006074 f   LIBCMT:utility.obj
 0001:0000508c       __scrt_dllmain_exception_filter 000000018000608c f   LIBCMT:utility.obj
 0001:000050ec       __scrt_dllmain_uninitialize_c 00000001800060ec f   LIBCMT:utility.obj
 0001:0000511c       __scrt_dllmain_uninitialize_critical 000000018000611c f   LIBCMT:utility.obj
 0001:00005130       __scrt_initialize_crt      0000000180006130 f   LIBCMT:utility.obj
 0001:0000517c       __scrt_initialize_onexit_tables 000000018000617c f   LIBCMT:utility.obj
 0001:00005254       __scrt_is_nonwritable_in_current_image 0000000180006254 f   LIBCMT:utility.obj
 0001:000052f0       __scrt_release_startup_lock 00000001800062f0 f   LIBCMT:utility.obj
 0001:00005314       __scrt_uninitialize_crt    0000000180006314 f   LIBCMT:utility.obj
 0001:00005340       __scrt_get_dyn_tls_init_callback 0000000180006340 f   LIBCMT:dyn_tls_init.obj
 0001:00005348       __crt_debugger_hook        0000000180006348 f   LIBCMT:utility_desktop.obj
 0001:00005350       __scrt_fastfail            0000000180006350 f   LIBCMT:utility_desktop.obj
 0001:0000549c       _RTC_Initialize            000000018000649c f   LIBCMT:_initsect_.obj
 0001:000054d8       _RTC_Terminate             00000001800064d8 f   LIBCMT:_initsect_.obj
 0001:00005514       ??_Gtype_info@@UEAAPEAXI@Z 0000000180006514 f i LIBCMT:std_type_info_static.obj
 0001:00005514       ??_Etype_info@@UEAAPEAXI@Z 0000000180006514 f i LIBCMT:std_type_info_static.obj
 0001:00005540       __isa_available_init       0000000180006540 f   LIBCMT:_cpu_disp_.obj
 0001:000056fc       __scrt_is_ucrt_dll_in_use  00000001800066fc f   LIBCMT:ucrt_detection.obj
 0001:00005710       __C_specific_handler       0000000180006710 f   libvcruntime:_riscchandler_.obj
 0001:0000591c       __std_exception_copy       000000018000691c f   libvcruntime:std_exception.obj
 0001:000059ac       __std_exception_destroy    00000001800069ac f   libvcruntime:std_exception.obj
 0001:000059d4       _CxxThrowException         00000001800069d4 f   libvcruntime:throw.obj
 0001:00005a94       __std_type_info_compare    0000000180006a94 f   libvcruntime:std_type_info.obj
 0001:00005abc       __std_type_info_destroy_list 0000000180006abc f   libvcruntime:std_type_info.obj
 0001:00005ae8       __vcrt_initialize          0000000180006ae8 f   libvcruntime:initialization.obj
 0001:00005b1c       __vcrt_thread_attach       0000000180006b1c f   libvcruntime:initialization.obj
 0001:00005b30       __vcrt_thread_detach       0000000180006b30 f   libvcruntime:initialization.obj
 0001:00005b44       __vcrt_uninitialize        0000000180006b44 f   libvcruntime:initialization.obj
 0001:00005b64       __vcrt_uninitialize_critical 0000000180006b64 f   libvcruntime:initialization.obj
 0001:00005b90       memset_repmovs             0000000180006b90 f   libvcruntime:memset.obj
 0001:00005bb0       memset                     0000000180006bb0 f   libvcruntime:memset.obj
 0001:00005d50       _NLG_Notify                0000000180006d50 f   libvcruntime:_notify_.obj
 0001:00005d70       __NLG_Dispatch2            0000000180006d70 f   libvcruntime:_notify_.obj
 0001:00005d80       __NLG_Return2              0000000180006d80 f   libvcruntime:_notify_.obj
 0001:00005d84       __except_validate_context_record 0000000180006d84 f   libvcruntime:jbcxrval.obj
 0001:00005dbc       __DestructExceptionObject  0000000180006dbc f   libvcruntime:ehhelpers.obj
 0001:00005e30       ?_CallMemberFunction0@@YAXQEAX0@Z 0000000180006e30 f i libvcruntime:ehhelpers.obj
 0001:00005e34       _IsExceptionObjectToBeDestroyed 0000000180006e34 f   libvcruntime:ehhelpers.obj
 0001:00005e64       __AdjustPointer            0000000180006e64 f   libvcruntime:ehhelpers.obj
 0001:00005e88       __FrameUnwindFilter        0000000180006e88 f   libvcruntime:ehhelpers.obj
 0001:00005ed4       __vcrt_freefls             0000000180006ed4 f   libvcruntime:per_thread_data.obj
 0001:00005ef4       __vcrt_freeptd             0000000180006ef4 f   libvcruntime:per_thread_data.obj
 0001:00005f44       __vcrt_getptd              0000000180006f44 f   libvcruntime:per_thread_data.obj
 0001:00005f60       __vcrt_getptd_noexit       0000000180006f60 f   libvcruntime:per_thread_data.obj
 0001:0000602c       __vcrt_initialize_ptd      000000018000702c f   libvcruntime:per_thread_data.obj
 0001:00006080       __vcrt_uninitialize_ptd    0000000180007080 f   libvcruntime:per_thread_data.obj
 0001:000060a4       __vcrt_initialize_locks    00000001800070a4 f   libvcruntime:locks.obj
 0001:000060ec       __vcrt_uninitialize_locks  00000001800070ec f   libvcruntime:locks.obj
 0001:000062fc       __vcrt_FlsAlloc            00000001800072fc f   libvcruntime:winapi_downlevel.obj
 0001:00006344       __vcrt_FlsFree             0000000180007344 f   libvcruntime:winapi_downlevel.obj
 0001:0000638c       __vcrt_FlsGetValue         000000018000738c f   libvcruntime:winapi_downlevel.obj
 0001:000063d4       __vcrt_FlsSetValue         00000001800073d4 f   libvcruntime:winapi_downlevel.obj
 0001:00006428       __vcrt_InitializeCriticalSectionEx 0000000180007428 f   libvcruntime:winapi_downlevel.obj
 0001:0000648c       __vcrt_initialize_winapi_thunks 000000018000748c f   libvcruntime:winapi_downlevel.obj
 0001:000064bc       __vcrt_uninitialize_winapi_thunks 00000001800074bc f   libvcruntime:winapi_downlevel.obj
 0001:000064fc       __vcrt_initialize_pure_virtual_call_handler 00000001800074fc f   libvcruntime:purevirt_data.obj
 0001:0000650c       ??$_CallSETranslator@V__FrameHandler3@@@@YAHPEAUEHExceptionRecord@@PEA_KPEAU_CONTEXT@@PEAU_xDISPATCHER_CONTEXT@@PEBU_s_FuncInfo@@K1@Z 000000018000750c f i libvcruntime:risctrnsctrl.obj
 0001:00006560       ?CatchTryBlock@__FrameHandler3@@SAPEBU_s_TryBlockMapEntry@@PEBU_s_FuncInfo@@H@Z 0000000180007560 f   libvcruntime:risctrnsctrl.obj
 0001:000065b8       ?ExecutionInCatch@__FrameHandler3@@SA_NPEAU_xDISPATCHER_CONTEXT@@PEBU_s_FuncInfo@@@Z 00000001800075b8 f   libvcruntime:risctrnsctrl.obj
 0001:000065e4       ?FrameUnwindToEmptyState@__FrameHandler3@@SAXPEA_KPEAU_xDISPATCHER_CONTEXT@@PEBU_s_FuncInfo@@@Z 00000001800075e4 f   libvcruntime:risctrnsctrl.obj
 0001:00006648       ?GetEstablisherFrame@__FrameHandler3@@SAPEA_KPEA_KPEAU_xDISPATCHER_CONTEXT@@PEBU_s_FuncInfo@@0@Z 0000000180007648 f   libvcruntime:risctrnsctrl.obj
 0001:00006714       ?GetRangeOfTrysToCheck@__FrameHandler3@@SA?AU?$pair@Viterator@TryBlockMap@__FrameHandler3@@V123@@std@@AEAVTryBlockMap@1@HH@Z 0000000180007714 f   libvcruntime:risctrnsctrl.obj
 0001:00006870       ?UnwindNestedFrames@__FrameHandler3@@SAXPEA_KPEAUEHExceptionRecord@@PEAU_CONTEXT@@0PEAXPEBU_s_FuncInfo@@HHPEBU_s_HandlerType@@PEAU_xDISPATCHER_CONTEXT@@E@Z 0000000180007870 f   libvcruntime:risctrnsctrl.obj
 0001:00006994       _CreateFrameInfo           0000000180007994 f   libvcruntime:risctrnsctrl.obj
 0001:000069d0       _FindAndUnlinkFrame        00000001800079d0 f   libvcruntime:risctrnsctrl.obj
 0001:00006a24       _GetImageBase              0000000180007a24 f   libvcruntime:risctrnsctrl.obj
 0001:00006a38       _GetThrowImageBase         0000000180007a38 f   libvcruntime:risctrnsctrl.obj
 0001:00006a4c       _SetImageBase              0000000180007a4c f   libvcruntime:risctrnsctrl.obj
 0001:00006a64       _SetThrowImageBase         0000000180007a64 f   libvcruntime:risctrnsctrl.obj
 0001:00006a7c       __CxxFrameHandler3         0000000180007a7c f   libvcruntime:risctrnsctrl.obj
 0001:00006b10       memcpy_repmovs             0000000180007b10 f   libvcruntime:memcpy.obj
 0001:00006b30       memcpy                     0000000180007b30 f   libvcruntime:memcpy.obj
 0001:00006b30       memmove                    0000000180007b30 f   libvcruntime:memcpy.obj
 0001:00006f68       ?GetCurrentState@__FrameHandler3@@SAHPEA_KPEAU_xDISPATCHER_CONTEXT@@PEBU_s_FuncInfo@@@Z 0000000180007f68 f   libvcruntime:ehstate.obj
 0001:00006f90       ?GetUnwindTryBlock@__FrameHandler3@@SAHPEA_KPEAU_xDISPATCHER_CONTEXT@@PEBU_s_FuncInfo@@@Z 0000000180007f90 f   libvcruntime:ehstate.obj
 0001:00006fbc       ?SetState@__FrameHandler3@@SAXPEA_KPEBU_s_FuncInfo@@H@Z 0000000180007fbc f   libvcruntime:ehstate.obj
 0001:00006fc8       ?SetUnwindTryBlock@__FrameHandler3@@SAXPEA_KPEAU_xDISPATCHER_CONTEXT@@PEBU_s_FuncInfo@@H@Z 0000000180007fc8 f   libvcruntime:ehstate.obj
 0001:00007004       ?StateFromControlPc@__FrameHandler3@@SAHPEBU_s_FuncInfo@@PEAU_xDISPATCHER_CONTEXT@@@Z 0000000180008004 f   libvcruntime:ehstate.obj
 0001:0000700c       ?StateFromIp@__FrameHandler3@@SAHPEBU_s_FuncInfo@@PEAU_xDISPATCHER_CONTEXT@@_K@Z 000000018000800c f   libvcruntime:ehstate.obj
 0001:00007a98       ??$TypeMatchHelper@$$CBU_s_HandlerType@@@@YAHPEBU_s_HandlerType@@PEBU_s_CatchableType@@PEBU_s_ThrowInfo@@@Z 0000000180008a98 f i libvcruntime:frame.obj
 0001:00007bdc       ??$__InternalCxxFrameHandler@V__FrameHandler3@@@@YA?AW4_EXCEPTION_DISPOSITION@@PEAUEHExceptionRecord@@PEA_KPEAU_CONTEXT@@PEAU_xDISPATCHER_CONTEXT@@PEBU_s_FuncInfo@@H1E@Z 0000000180008bdc f i libvcruntime:frame.obj
 0001:00007e24       ??0bad_exception@std@@QEAA@AEBV01@@Z 0000000180008e24 f i libvcruntime:frame.obj
 0001:00007e64       ??0bad_exception@std@@QEAA@XZ 0000000180008e64 f i libvcruntime:frame.obj
 0001:00007e84       ?CxxCallCatchBlock@__FrameHandler3@@SAPEAXPEAU_EXCEPTION_RECORD@@@Z 0000000180008e84 f   libvcruntime:frame.obj
 0001:000080f8       ?FrameUnwindToState@__FrameHandler3@@SAXPEA_KPEAU_xDISPATCHER_CONTEXT@@PEBU_s_FuncInfo@@H@Z 00000001800090f8 f   libvcruntime:frame.obj
 0001:0000828c       ?GetHandlerSearchState@__FrameHandler3@@SAHPEA_KPEAU_xDISPATCHER_CONTEXT@@PEBU_s_FuncInfo@@@Z 000000018000928c f i libvcruntime:frame.obj
 0001:00008490       ?_CallMemberFunction1@@YAXQEAX00@Z 0000000180009490 f i libvcruntime:frame.obj
 0001:0000849c       ?_CallMemberFunction2@@YAXQEAX00H@Z 000000018000949c f i libvcruntime:frame.obj
 0001:000084c0       _CallSettingFrame          00000001800094c0 f   libvcruntime:handlers.obj
 0001:00008510       _CallSettingFrameEncoded   0000000180009510 f   libvcruntime:handlers.obj
 0001:00008558       ??$is_overflow_condition@_K@__crt_strtox@@YA_NI_K@Z 0000000180009558 f i libucrt:strtox.obj
 0001:00008588       ??$parse_integer@KV?$c_string_character_source@D@__crt_strtox@@@__crt_strtox@@YAKQEAU__crt_locale_pointers@@V?$c_string_character_source@D@0@H_N@Z 0000000180009588 f i libucrt:strtox.obj
 0001:000088c4       ??$parse_integer@KV?$c_string_character_source@_W@__crt_strtox@@@__crt_strtox@@YAKQEAU__crt_locale_pointers@@V?$c_string_character_source@_W@0@H_N@Z 00000001800098c4 f i libucrt:strtox.obj
 0001:00008f78       ??$parse_integer@_KV?$c_string_character_source@D@__crt_strtox@@@__crt_strtox@@YA_KQEAU__crt_locale_pointers@@V?$c_string_character_source@D@0@H_N@Z 0000000180009f78 f i libucrt:strtox.obj
 0001:000092ac       ??0_LocaleUpdate@@QEAA@QEAU__crt_locale_pointers@@@Z 000000018000a2ac f i libucrt:strtox.obj
 0001:00009348       ??1_LocaleUpdate@@QEAA@XZ  000000018000a348 f i libucrt:strtox.obj
 0001:0000935c       _strtoi64                  000000018000a35c f   libucrt:strtox.obj
 0001:00009388       _strtoui64                 000000018000a388 f   libucrt:strtox.obj
 0001:000093b4       strtol                     000000018000a3b4 f   libucrt:strtox.obj
 0001:000093e0       wcstol                     000000018000a3e0 f   libucrt:strtox.obj
 0001:000097ec       ??$ensure_buffer_is_big_enough@D@formatting_buffer@__crt_stdio_output@@QEAA_N_K@Z 000000018000a7ec f i libucrt:output.obj
 0001:00009894       ??$ensure_buffer_is_big_enough@_W@formatting_buffer@__crt_stdio_output@@QEAA_N_K@Z 000000018000a894 f i libucrt:output.obj
 0001:00009940       ??$is_wide_character_specifier@_W@__crt_stdio_output@@YA_N_K_WW4length_modifier@0@@Z 000000018000a940 f i libucrt:output.obj
 0001:00009980       ??$type_case_integer_parse_into_buffer@I@?$output_processor@DV?$string_output_adapter@D@__crt_stdio_output@@V?$format_validation_base@DV?$string_output_adapter@D@__crt_stdio_output@@@2@@__crt_stdio_output@@AEAAXII_N@Z 000000018000a980 f i libucrt:output.obj
 0001:00009a10       ??$type_case_integer_parse_into_buffer@I@?$output_processor@_WV?$stream_output_adapter@_W@__crt_stdio_output@@V?$standard_base@_WV?$stream_output_adapter@_W@__crt_stdio_output@@@2@@__crt_stdio_output@@AEAAXII_N@Z 000000018000aa10 f i libucrt:output.obj
 0001:00009a10       ??$type_case_integer_parse_into_buffer@I@?$output_processor@_WV?$string_output_adapter@_W@__crt_stdio_output@@V?$standard_base@_WV?$string_output_adapter@_W@__crt_stdio_output@@@2@@__crt_stdio_output@@AEAAXII_N@Z 000000018000aa10 f i libucrt:output.obj
 0001:00009ab0       ??$type_case_integer_parse_into_buffer@_K@?$output_processor@DV?$string_output_adapter@D@__crt_stdio_output@@V?$format_validation_base@DV?$string_output_adapter@D@__crt_stdio_output@@@2@@__crt_stdio_output@@AEAAX_KI_N@Z 000000018000aab0 f i libucrt:output.obj
 0001:00009b44       ??$type_case_integer_parse_into_buffer@_K@?$output_processor@_WV?$stream_output_adapter@_W@__crt_stdio_output@@V?$standard_base@_WV?$stream_output_adapter@_W@__crt_stdio_output@@@2@@__crt_stdio_output@@AEAAX_KI_N@Z 000000018000ab44 f i libucrt:output.obj
 0001:00009b44       ??$type_case_integer_parse_into_buffer@_K@?$output_processor@_WV?$string_output_adapter@_W@__crt_stdio_output@@V?$standard_base@_WV?$string_output_adapter@_W@__crt_stdio_output@@@2@@__crt_stdio_output@@AEAAX_KI_N@Z 000000018000ab44 f i libucrt:output.obj
 0001:00009be8       ??$write_multiple_characters@V?$stream_output_adapter@_W@__crt_stdio_output@@D@__crt_stdio_output@@YAXAEBV?$stream_output_adapter@_W@0@DHQEAH@Z 000000018000abe8 f i libucrt:output.obj
 0001:00009c7c       ??$write_multiple_characters@V?$string_output_adapter@D@__crt_stdio_output@@D@__crt_stdio_output@@YAXAEBV?$string_output_adapter@D@0@DHQEAH@Z 000000018000ac7c f i libucrt:output.obj
 0001:00009cf4       ??$write_multiple_characters@V?$string_output_adapter@_W@__crt_stdio_output@@D@__crt_stdio_output@@YAXAEBV?$string_output_adapter@_W@0@DHQEAH@Z 000000018000acf4 f i libucrt:output.obj
 0001:00009ea4       ?crop_zeroes@__crt_stdio_output@@YAXPEADQEAU__crt_locale_pointers@@@Z 000000018000aea4 f i libucrt:output.obj
 0001:00009f10       ?force_decimal_point@__crt_stdio_output@@YAXPEADQEAU__crt_locale_pointers@@@Z 000000018000af10 f i libucrt:output.obj
 0001:00009f80       ?parse_int_from_format_string@?$output_processor@DV?$string_output_adapter@D@__crt_stdio_output@@V?$format_validation_base@DV?$string_output_adapter@D@__crt_stdio_output@@@2@@__crt_stdio_output@@AEAA_NQEAH@Z 000000018000af80 f i libucrt:output.obj
 0001:0000a024       ?parse_int_from_format_string@?$output_processor@_WV?$string_output_adapter@_W@__crt_stdio_output@@V?$standard_base@_WV?$string_output_adapter@_W@__crt_stdio_output@@@2@@__crt_stdio_output@@AEAA_NQEAH@Z 000000018000b024 f i libucrt:output.obj
 0001:0000a024       ?parse_int_from_format_string@?$output_processor@_WV?$stream_output_adapter@_W@__crt_stdio_output@@V?$standard_base@_WV?$stream_output_adapter@_W@__crt_stdio_output@@@2@@__crt_stdio_output@@AEAA_NQEAH@Z 000000018000b024 f i libucrt:output.obj
 0001:0000a0c8       ?process@?$output_processor@DV?$string_output_adapter@D@__crt_stdio_output@@V?$format_validation_base@DV?$string_output_adapter@D@__crt_stdio_output@@@2@@__crt_stdio_output@@QEAAHXZ 000000018000b0c8 f i libucrt:output.obj
 0001:0000a2dc       ?process@?$output_processor@_WV?$stream_output_adapter@_W@__crt_stdio_output@@V?$standard_base@_WV?$stream_output_adapter@_W@__crt_stdio_output@@@2@@__crt_stdio_output@@QEAAHXZ 000000018000b2dc f i libucrt:output.obj
 0001:0000a534       ?process@?$output_processor@_WV?$string_output_adapter@_W@__crt_stdio_output@@V?$standard_base@_WV?$string_output_adapter@_W@__crt_stdio_output@@@2@@__crt_stdio_output@@QEAAHXZ 000000018000b534 f i libucrt:output.obj
 0001:0000a790       ?state_case_normal@?$output_processor@DV?$string_output_adapter@D@__crt_stdio_output@@V?$format_validation_base@DV?$string_output_adapter@D@__crt_stdio_output@@@2@@__crt_stdio_output@@AEAA_NXZ 000000018000b790 f i libucrt:output.obj
 0001:0000a804       ?state_case_normal_tchar@?$output_processor@DV?$string_output_adapter@D@__crt_stdio_output@@V?$format_validation_base@DV?$string_output_adapter@D@__crt_stdio_output@@@2@@__crt_stdio_output@@AEAA_ND@Z 000000018000b804 f i libucrt:output.obj
 0001:0000a89c       ?state_case_size@?$output_processor@DV?$string_output_adapter@D@__crt_stdio_output@@V?$format_validation_base@DV?$string_output_adapter@D@__crt_stdio_output@@@2@@__crt_stdio_output@@AEAA_NXZ 000000018000b89c f i libucrt:output.obj
 0001:0000aa10       ?state_case_size@?$output_processor@_WV?$stream_output_adapter@_W@__crt_stdio_output@@V?$standard_base@_WV?$stream_output_adapter@_W@__crt_stdio_output@@@2@@__crt_stdio_output@@AEAA_NXZ 000000018000ba10 f i libucrt:output.obj
 0001:0000aba8       ?state_case_size@?$output_processor@_WV?$string_output_adapter@_W@__crt_stdio_output@@V?$standard_base@_WV?$string_output_adapter@_W@__crt_stdio_output@@@2@@__crt_stdio_output@@AEAA_NXZ 000000018000bba8 f i libucrt:output.obj
 0001:0000ad40       ?state_case_type@?$output_processor@DV?$string_output_adapter@D@__crt_stdio_output@@V?$format_validation_base@DV?$string_output_adapter@D@__crt_stdio_output@@@2@@__crt_stdio_output@@AEAA_NXZ 000000018000bd40 f i libucrt:output.obj
 0001:0000afac       ?state_case_type@?$output_processor@_WV?$stream_output_adapter@_W@__crt_stdio_output@@V?$standard_base@_WV?$stream_output_adapter@_W@__crt_stdio_output@@@2@@__crt_stdio_output@@AEAA_NXZ 000000018000bfac f i libucrt:output.obj
 0001:0000b298       ?state_case_type@?$output_processor@_WV?$string_output_adapter@_W@__crt_stdio_output@@V?$standard_base@_WV?$string_output_adapter@_W@__crt_stdio_output@@@2@@__crt_stdio_output@@AEAA_NXZ 000000018000c298 f i libucrt:output.obj
 0001:0000b56c       ?type_case_Z@?$output_processor@DV?$string_output_adapter@D@__crt_stdio_output@@V?$format_validation_base@DV?$string_output_adapter@D@__crt_stdio_output@@@2@@__crt_stdio_output@@AEAA_NXZ 000000018000c56c f i libucrt:output.obj
 0001:0000b5e4       ?type_case_Z@?$output_processor@_WV?$string_output_adapter@_W@__crt_stdio_output@@V?$standard_base@_WV?$string_output_adapter@_W@__crt_stdio_output@@@2@@__crt_stdio_output@@AEAA_NXZ 000000018000c5e4 f i libucrt:output.obj
 0001:0000b5e4       ?type_case_Z@?$output_processor@_WV?$stream_output_adapter@_W@__crt_stdio_output@@V?$standard_base@_WV?$stream_output_adapter@_W@__crt_stdio_output@@@2@@__crt_stdio_output@@AEAA_NXZ 000000018000c5e4 f i libucrt:output.obj
 0001:0000b660       ?type_case_a@?$output_processor@DV?$string_output_adapter@D@__crt_stdio_output@@V?$format_validation_base@DV?$string_output_adapter@D@__crt_stdio_output@@@2@@__crt_stdio_output@@AEAA_NXZ 000000018000c660 f i libucrt:output.obj
 0001:0000b81c       ?type_case_a@?$output_processor@_WV?$string_output_adapter@_W@__crt_stdio_output@@V?$standard_base@_WV?$string_output_adapter@_W@__crt_stdio_output@@@2@@__crt_stdio_output@@AEAA_NXZ 000000018000c81c f i libucrt:output.obj
 0001:0000b81c       ?type_case_a@?$output_processor@_WV?$stream_output_adapter@_W@__crt_stdio_output@@V?$standard_base@_WV?$stream_output_adapter@_W@__crt_stdio_output@@@2@@__crt_stdio_output@@AEAA_NXZ 000000018000c81c f i libucrt:output.obj
 0001:0000b9fc       ?type_case_c_tchar@?$output_processor@DV?$string_output_adapter@D@__crt_stdio_output@@V?$format_validation_base@DV?$string_output_adapter@D@__crt_stdio_output@@@2@@__crt_stdio_output@@AEAA_ND@Z 000000018000c9fc f i libucrt:output.obj
 0001:0000bac0       ?type_case_c_tchar@?$output_processor@_WV?$string_output_adapter@_W@__crt_stdio_output@@V?$standard_base@_WV?$string_output_adapter@_W@__crt_stdio_output@@@2@@__crt_stdio_output@@AEAA_N_W@Z 000000018000cac0 f i libucrt:output.obj
 0001:0000bac0       ?type_case_c_tchar@?$output_processor@_WV?$stream_output_adapter@_W@__crt_stdio_output@@V?$standard_base@_WV?$stream_output_adapter@_W@__crt_stdio_output@@@2@@__crt_stdio_output@@AEAA_N_W@Z 000000018000cac0 f i libucrt:output.obj
 0001:0000bb68       ?type_case_integer@?$output_processor@DV?$string_output_adapter@D@__crt_stdio_output@@V?$format_validation_base@DV?$string_output_adapter@D@__crt_stdio_output@@@2@@__crt_stdio_output@@AEAA_NI_N@Z 000000018000cb68 f i libucrt:output.obj
 0001:0000bd30       ?type_case_integer@?$output_processor@_WV?$stream_output_adapter@_W@__crt_stdio_output@@V?$standard_base@_WV?$stream_output_adapter@_W@__crt_stdio_output@@@2@@__crt_stdio_output@@AEAA_NI_N@Z 000000018000cd30 f i libucrt:output.obj
 0001:0000bd30       ?type_case_integer@?$output_processor@_WV?$string_output_adapter@_W@__crt_stdio_output@@V?$standard_base@_WV?$string_output_adapter@_W@__crt_stdio_output@@@2@@__crt_stdio_output@@AEAA_NI_N@Z 000000018000cd30 f i libucrt:output.obj
 0001:0000befc       ?type_case_n@?$output_processor@DV?$string_output_adapter@D@__crt_stdio_output@@V?$format_validation_base@DV?$string_output_adapter@D@__crt_stdio_output@@@2@@__crt_stdio_output@@AEAA_NXZ 000000018000cefc f i libucrt:output.obj
 0001:0000befc       ?type_case_n@?$output_processor@_WV?$stream_output_adapter@_W@__crt_stdio_output@@V?$standard_base@_WV?$stream_output_adapter@_W@__crt_stdio_output@@@2@@__crt_stdio_output@@AEAA_NXZ 000000018000cefc f i libucrt:output.obj
 0001:0000befc       ?type_case_n@?$output_processor@_WV?$string_output_adapter@_W@__crt_stdio_output@@V?$standard_base@_WV?$string_output_adapter@_W@__crt_stdio_output@@@2@@__crt_stdio_output@@AEAA_NXZ 000000018000cefc f i libucrt:output.obj
 0001:0000bfd8       ?type_case_s@?$output_processor@DV?$string_output_adapter@D@__crt_stdio_output@@V?$format_validation_base@DV?$string_output_adapter@D@__crt_stdio_output@@@2@@__crt_stdio_output@@AEAA_NXZ 000000018000cfd8 f i libucrt:output.obj
 0001:0000c070       ?type_case_s@?$output_processor@_WV?$string_output_adapter@_W@__crt_stdio_output@@V?$standard_base@_WV?$string_output_adapter@_W@__crt_stdio_output@@@2@@__crt_stdio_output@@AEAA_NXZ 000000018000d070 f i libucrt:output.obj
 0001:0000c070       ?type_case_s@?$output_processor@_WV?$stream_output_adapter@_W@__crt_stdio_output@@V?$standard_base@_WV?$stream_output_adapter@_W@__crt_stdio_output@@@2@@__crt_stdio_output@@AEAA_NXZ 000000018000d070 f i libucrt:output.obj
 0001:0000c134       ?write_stored_string_tchar@?$output_processor@DV?$string_output_adapter@D@__crt_stdio_output@@V?$format_validation_base@DV?$string_output_adapter@D@__crt_stdio_output@@@2@@__crt_stdio_output@@AEAA_ND@Z 000000018000d134 f i libucrt:output.obj
 0001:0000c20c       ?write_stored_string_tchar@?$output_processor@_WV?$stream_output_adapter@_W@__crt_stdio_output@@V?$standard_base@_WV?$stream_output_adapter@_W@__crt_stdio_output@@@2@@__crt_stdio_output@@AEAA_N_W@Z 000000018000d20c f i libucrt:output.obj
 0001:0000c314       ?write_stored_string_tchar@?$output_processor@_WV?$string_output_adapter@_W@__crt_stdio_output@@V?$standard_base@_WV?$string_output_adapter@_W@__crt_stdio_output@@@2@@__crt_stdio_output@@AEAA_N_W@Z 000000018000d314 f i libucrt:output.obj
 0001:0000c400       ?write_string@?$string_output_adapter@D@__crt_stdio_output@@QEBAXQEBDHQEAHAEAV__crt_deferred_errno_cache@@@Z 000000018000d400 f i libucrt:output.obj
 0001:0000c4a4       ?write_string@?$string_output_adapter@_W@__crt_stdio_output@@QEBAXQEB_WHQEAHAEAV__crt_deferred_errno_cache@@@Z 000000018000d4a4 f i libucrt:output.obj
 0001:0000c54c       ?write_string_impl@?$output_adapter_common@_WV?$stream_output_adapter@_W@__crt_stdio_output@@@__crt_stdio_output@@IEBAXQEB_WHQEAHAEAV__crt_deferred_errno_cache@@@Z 000000018000d54c f i libucrt:output.obj
 0001:0000c650       __stdio_common_vfwprintf   000000018000d650 f   libucrt:output.obj
 0001:0000c6dc       __stdio_common_vsnprintf_s 000000018000d6dc f   libucrt:output.obj
 0001:0000c810       __stdio_common_vswprintf   000000018000d810 f   libucrt:output.obj
 0001:0000c818       __acrt_errno_from_os_error 000000018000d818 f   libucrt:errno.obj
 0001:0000c860       __acrt_errno_map_os_error  000000018000d860 f   libucrt:errno.obj
 0001:0000c8b0       __doserrno                 000000018000d8b0 f   libucrt:errno.obj
 0001:0000c8d0       _errno                     000000018000d8d0 f   libucrt:errno.obj
 0001:0000d2c8       ??$ftprintf@PEAU_iobuf@@PEB_WAEBQEB_WAEBQEB_WAEBI@?$__crt_char_traits@_W@@SAH$$QEAPEAU_iobuf@@$$QEAPEB_WAEBQEB_W2AEBI@Z 000000018000e2c8 f i libucrt:assert.obj
 0001:0000d2f0       _wassert                   000000018000e2f0 f   libucrt:assert.obj
 0001:0000d374       fwprintf                   000000018000e374 f i libucrt:assert.obj
 0001:0000d3b8       swprintf                   000000018000e3b8 f i libucrt:assert.obj
 0001:0000d40c       strerror                   000000018000e40c f   libucrt:strerror.obj
 0001:0000d4b4       __ascii_stricmp            000000018000e4b4 f   libucrt:stricmp.obj
 0001:0000d4f4       _stricmp                   000000018000e4f4 f   libucrt:stricmp.obj
 0001:0000d53c       _stricmp_l                 000000018000e53c f   libucrt:stricmp.obj
 0001:0000d5f0       __acrt_initialize_new_handler 000000018000e5f0 f   libucrt:new_handler.obj
 0001:0000d5f8       _callnewh                  000000018000e5f8 f   libucrt:new_handler.obj
 0001:0000d628       _query_new_handler         000000018000e628 f   libucrt:new_handler.obj
 0001:0000d65c       malloc                     000000018000e65c f   libucrt:malloc.obj
 0001:0000d664       _initterm                  000000018000e664 f   libucrt:initterm.obj
 0001:0000d6c8       _initterm_e                000000018000e6c8 f   libucrt:initterm.obj
 0001:0000d708       free                       000000018000e708 f   libucrt:free.obj
 0001:0000d71c       _seh_filter_dll            000000018000e71c f   libucrt:exception_filter.obj
 0001:0000d730       _seh_filter_exe            000000018000e730 f   libucrt:exception_filter.obj
 0001:0000db28       __acrt_initialize_thread_local_exit_callback 000000018000eb28 f   libucrt:exit.obj
 0001:0000db30       _cexit                     000000018000eb30 f   libucrt:exit.obj
 0001:0000db40       _exit                      000000018000eb40 f   libucrt:exit.obj
 0001:0000db4c       _is_c_termination_complete 000000018000eb4c f   libucrt:exit.obj
 0001:0000dd18       __acrt_allocate_buffer_for_argv 000000018000ed18 f   libucrt:argv_parsing.obj
 0001:0000dd78       _configure_narrow_argv     000000018000ed78 f   libucrt:argv_parsing.obj
 0001:0000e0f0       __dcrt_uninitialize_environments_nolock 000000018000f0f0 f   libucrt:environment_initialization.obj
 0001:0000e128       _initialize_narrow_environment 000000018000f128 f   libucrt:environment_initialization.obj
 0001:0000e2b8       _execute_onexit_table      000000018000f2b8 f   libucrt:onexit.obj
 0001:0000e2f4       _initialize_onexit_table   000000018000f2f4 f   libucrt:onexit.obj
 0001:0000e36c       __acrt_uninitialize_command_line 000000018000f36c f   libucrt:argv_data.obj
 0001:0000e478       __acrt_initialize          000000018000f478 f   libucrt:initialization.obj
 0001:0000e48c       __acrt_thread_attach       000000018000f48c f   libucrt:initialization.obj
 0001:0000e4a0       __acrt_thread_detach       000000018000f4a0 f   libucrt:initialization.obj
 0001:0000e4b0       __acrt_uninitialize        000000018000f4b0 f   libucrt:initialization.obj
 0001:0000e4e8       __acrt_uninitialize_critical 000000018000f4e8 f   libucrt:initialization.obj
 0001:0000e4f8       terminate                  000000018000f4f8 f   libucrt:terminate.obj
 0001:0000e518       strcpy_s                   000000018000f518 f   libucrt:strcpy_s.obj
 0001:0000e5a0       strncmp                    000000018000f5a0 f   libucrt:strncmp.obj
 0001:0000e620       abort                      000000018000f620 f   libucrt:abort.obj
 0001:0000e678       calloc                     000000018000f678 f   libucrt:calloc.obj
 0001:0000e680       wcsncmp                    000000018000f680 f   libucrt:wcsncmp.obj
 0001:0000e6ac       __acrt_call_reportfault    000000018000f6ac f   libucrt:invalid_parameter.obj
 0001:0000e808       __acrt_initialize_invalid_parameter_handler 000000018000f808 f   libucrt:invalid_parameter.obj
 0001:0000e810       _invalid_parameter         000000018000f810 f   libucrt:invalid_parameter.obj
 0001:0000e8c0       _invalid_parameter_noinfo  000000018000f8c0 f   libucrt:invalid_parameter.obj
 0001:0000e8e0       _invoke_watson             000000018000f8e0 f   libucrt:invalid_parameter.obj
 0001:0000e928       __pctype_func              000000018000f928 f   libucrt:ctype.obj
 0001:0000e958       iswctype                   000000018000f958 f   libucrt:iswctype.obj
 0001:0000e9c8       _isctype_l                 000000018000f9c8 f   libucrt:isctype.obj
 0001:0000ee54       __acrt_freeptd             000000018000fe54 f   libucrt:per_thread_data.obj
 0001:0000ee98       __acrt_getptd              000000018000fe98 f   libucrt:per_thread_data.obj
 0001:0000ef5c       __acrt_getptd_head         000000018000ff5c f   libucrt:per_thread_data.obj
 0001:0000f004       __acrt_getptd_noexit       0000000180010004 f   libucrt:per_thread_data.obj
 0001:0000f0bc       __acrt_initialize_ptd      00000001800100bc f   libucrt:per_thread_data.obj
 0001:0000f0f8       __acrt_uninitialize_ptd    00000001800100f8 f   libucrt:per_thread_data.obj
 0001:0000f11c       __acrt_update_locale_info  000000018001011c f   libucrt:locale_update.obj
 0001:0000f150       __acrt_update_multibyte_info 0000000180010150 f   libucrt:locale_update.obj
 0001:0000f1f4       __acrt_set_locale_changed  00000001800101f4 f   libucrt:wsetlocale.obj
 0001:0000f200       __acrt_uninitialize_locale 0000000180010200 f   libucrt:wsetlocale.obj
 0001:0000f230       isdigit                    0000000180010230 f i libucrt:_ctype.obj
 0001:0000f2f8       _tolower_l                 00000001800102f8 f   libucrt:tolower_toupper.obj
 0001:0000f438       tolower                    0000000180010438 f   libucrt:tolower_toupper.obj
 0001:0000f464       _free_base                 0000000180010464 f   libucrt:free_base.obj
 0001:0000f4a4       _malloc_base               00000001800104a4 f   libucrt:malloc_base.obj
 0001:0000f504       _mbtowc_l                  0000000180010504 f   libucrt:mbtowc.obj
 0001:0000f680       mbtowc                     0000000180010680 f   libucrt:mbtowc.obj
 0001:0000f688       _wctomb_s_l                0000000180010688 f   libucrt:wctomb.obj
 0001:0000f80c       wctomb_s                   000000018001080c f   libucrt:wctomb.obj
 0001:0000f820       strnlen                    0000000180010820 f   libucrt:strnlen.obj
 0001:0000f970       wcsnlen                    0000000180010970 f   libucrt:strnlen.obj
 0001:00010518       __acrt_fp_format           0000000180011518 f   libucrt:cvt.obj
 0001:000107a0       _fputwc_nolock             00000001800117a0 f   libucrt:fputwc.obj
 0001:00010918       _fileno                    0000000180011918 f   libucrt:fileno.obj
 0001:00010940       __acrt_initialize_stdio    0000000180011940 f   libucrt:_file.obj
 0001:00010a60       __acrt_iob_func            0000000180011a60 f   libucrt:_file.obj
 0001:00010a74       __acrt_uninitialize_stdio  0000000180011a74 f   libucrt:_file.obj
 0001:00010ad0       _lock_file                 0000000180011ad0 f   libucrt:_file.obj
 0001:00010adc       _unlock_file               0000000180011adc f   libucrt:_file.obj
 0001:00010ae8       _fputc_nolock              0000000180011ae8 f   libucrt:fputc.obj
 0001:00010b00       _get_printf_count_output   0000000180011b00 f   libucrt:printf_count_output.obj
 0001:00010b18       __acrt_stdio_begin_temporary_buffering_nolock 0000000180011b18 f   libucrt:_sftbuf.obj
 0001:00010be8       __acrt_stdio_end_temporary_buffering_nolock 0000000180011be8 f   libucrt:_sftbuf.obj
 0001:00010e0c       __acrt_initialize_lowio    0000000180011e0c f   libucrt:ioinit.obj
 0001:00010e48       __acrt_uninitialize_lowio  0000000180011e48 f   libucrt:ioinit.obj
 0001:00010e88       _query_app_type            0000000180011e88 f   libucrt:report_runtime_error.obj
 0001:00010fc0       _itow_s                    0000000180011fc0 f   libucrt:xtoa.obj
 0001:00010fe0       _set_error_mode            0000000180011fe0 f   libucrt:set_error_mode.obj
 0001:00011020       wcscat_s                   0000000180012020 f   libucrt:wcscat_s.obj
 0001:000110ac       wcscpy_s                   00000001800120ac f   libucrt:wcscpy_s.obj
 0001:00011124       wcsncat_s                  0000000180012124 f   libucrt:wcsncat_s.obj
 0001:00011238       __acrt_GetModuleFileNameA  0000000180012238 f   libucrt:getmodulefilenamea.obj
 0001:000112b4       __acrt_show_wide_message_box 00000001800122b4 f   libucrt:crtmbox.obj
 0001:00011574       __acrt_stdio_flush_nolock  0000000180012574 f   libucrt:fflush.obj
 0001:000115f0       _fflush_nolock             00000001800125f0 f   libucrt:fflush.obj
 0001:0001163c       _flushall                  000000018001263c f   libucrt:fflush.obj
 0001:00011644       fflush                     0000000180012644 f   libucrt:fflush.obj
 0001:000117dc       setvbuf                    00000001800127dc f   libucrt:setvbuf.obj
 0001:000118c0       __acrt_get_sigabrt_handler 00000001800128c0 f   libucrt:signal.obj
 0001:000118f0       __acrt_initialize_signal_handlers 00000001800128f0 f   libucrt:signal.obj
 0001:00011910       raise                      0000000180012910 f   libucrt:signal.obj
 0001:00011b90       _calloc_base               0000000180012b90 f   libucrt:calloc_base.obj
 0001:00011c08       __sys_errlist              0000000180012c08 f   libucrt:syserr.obj
 0001:00011c10       __sys_nerr                 0000000180012c10 f   libucrt:syserr.obj
 0001:00011e1c       _mbstowcs_l                0000000180012e1c f   libucrt:mbstowcs.obj
 0001:00011e24       mbstowcs                   0000000180012e24 f   libucrt:mbstowcs.obj
 0001:00011e40       strncpy_s                  0000000180012e40 f   libucrt:strncpy_s.obj
 0001:00011f28       __acrt_initialize_locks    0000000180012f28 f   libucrt:locks.obj
 0001:00011f70       __acrt_lock                0000000180012f70 f   libucrt:locks.obj
 0001:00011f8c       __acrt_uninitialize_locks  0000000180012f8c f   libucrt:locks.obj
 0001:00011fc4       __acrt_unlock              0000000180012fc4 f   libucrt:locks.obj
 0001:00011fe0       __acrt_get_developer_information_policy 0000000180012fe0 f   libucrt:win_policies.obj
 0001:00012034       __acrt_get_process_end_policy 0000000180013034 f   libucrt:win_policies.obj
 0001:00012070       __acrt_get_windowing_model_policy 0000000180013070 f   libucrt:win_policies.obj
 0001:00012644       __acrt_expand_narrow_argv_wildcards 0000000180013644 f   libucrt:argv_wildcards.obj
 0001:00012d78       __acrt_initialize_multibyte 0000000180013d78 f   libucrt:mbctype.obj
 0001:00012dd8       __acrt_update_thread_multibyte_data 0000000180013dd8 f   libucrt:mbctype.obj
 0001:00012df4       _setmbcp_nolock            0000000180013df4 f   libucrt:mbctype.obj
 0001:00013124       _ismbblead                 0000000180014124 f   libucrt:ismbbyte.obj
 0001:00013138       __acrt_initialize_command_line 0000000180014138 f   libucrt:argv_data.obj
 0001:00013160       __acrt_MultiByteToWideChar 0000000180014160 f   libucrt:multibytetowidechar.obj
 0001:000131bc       __acrt_WideCharToMultiByte 00000001800141bc f   libucrt:widechartomultibyte.obj
 0001:00013254       __dcrt_get_narrow_environment_from_os 0000000180014254 f   libucrt:get_environment_from_os.obj
 0001:00013358       _recalloc                  0000000180014358 f   libucrt:recalloc.obj
 0001:00013360       _recalloc_base             0000000180014360 f   libucrt:recalloc.obj
 0001:000135d0       __acrt_AppPolicyGetProcessTerminationMethodInternal 00000001800145d0 f   libucrt:winapi_thunks.obj
 0001:00013620       __acrt_AppPolicyGetShowDeveloperDiagnosticInternal 0000000180014620 f   libucrt:winapi_thunks.obj
 0001:00013670       __acrt_AppPolicyGetWindowingModelInternal 0000000180014670 f   libucrt:winapi_thunks.obj
 0001:000136c0       __acrt_FlsAlloc            00000001800146c0 f   libucrt:winapi_thunks.obj
 0001:00013708       __acrt_FlsFree             0000000180014708 f   libucrt:winapi_thunks.obj
 0001:00013750       __acrt_FlsGetValue         0000000180014750 f   libucrt:winapi_thunks.obj
 0001:00013798       __acrt_FlsSetValue         0000000180014798 f   libucrt:winapi_thunks.obj
 0001:000137ec       __acrt_InitializeCriticalSectionEx 00000001800147ec f   libucrt:winapi_thunks.obj
 0001:00013850       __acrt_LCMapStringEx       0000000180014850 f   libucrt:winapi_thunks.obj
 0001:0001392c       __acrt_LocaleNameToLCID    000000018001492c f   libucrt:winapi_thunks.obj
 0001:0001397c       __acrt_MessageBoxW         000000018001497c f   libucrt:winapi_thunks.obj
 0001:000139f0       __acrt_can_show_message_box 00000001800149f0 f   libucrt:winapi_thunks.obj
 0001:00013a60       __acrt_get_parent_window   0000000180014a60 f   libucrt:winapi_thunks.obj
 0001:00013adc       __acrt_initialize_winapi_thunks 0000000180014adc f   libucrt:winapi_thunks.obj
 0001:00013b24       __acrt_is_interactive      0000000180014b24 f   libucrt:winapi_thunks.obj
 0001:00013bec       __acrt_uninitialize_winapi_thunks 0000000180014bec f   libucrt:winapi_thunks.obj
 0001:00013c30       __acrt_initialize_heap     0000000180014c30 f   libucrt:heap_handle.obj
 0001:00013c4c       __acrt_uninitialize_heap   0000000180014c4c f   libucrt:heap_handle.obj
 0001:00013c58       __acrt_execute_initializers 0000000180014c58 f   libucrt:shared_initialization.obj
 0001:00013cd8       __acrt_execute_uninitializers 0000000180014cd8 f   libucrt:shared_initialization.obj
 0001:00013d14       __acrt_has_user_matherr    0000000180014d14 f   libucrt:matherr.obj
 0001:00013d34       __acrt_initialize_user_matherr 0000000180014d34 f   libucrt:matherr.obj
 0001:00013d3c       __acrt_invoke_user_matherr 0000000180014d3c f   libucrt:matherr.obj
 0001:00013d6c       __acrt_GetStringTypeW      0000000180014d6c f   libucrt:getstringtypew.obj
 0001:00013d74       _isleadbyte_l              0000000180014d74 f i libucrt:_wctype.obj
 0001:00013db4       __acrt_GetStringTypeA      0000000180014db4 f   libucrt:getstringtypea.obj
 0001:00013f44       __acrt_add_locale_ref      0000000180014f44 f   libucrt:locale_refcounting.obj
 0001:00013fd0       __acrt_free_locale         0000000180014fd0 f   libucrt:locale_refcounting.obj
 0001:00014148       __acrt_locale_add_lc_time_reference 0000000180015148 f   libucrt:locale_refcounting.obj
 0001:00014170       __acrt_locale_free_lc_time_if_unreferenced 0000000180015170 f   libucrt:locale_refcounting.obj
 0001:000141a8       __acrt_locale_release_lc_time_reference 00000001800151a8 f   libucrt:locale_refcounting.obj
 0001:000141d0       __acrt_release_locale_ref  00000001800151d0 f   libucrt:locale_refcounting.obj
 0001:00014278       __acrt_update_thread_locale_data 0000000180015278 f   libucrt:locale_refcounting.obj
 0001:000142e8       _updatetlocinfoEx_nolock   00000001800152e8 f   libucrt:locale_refcounting.obj
 0001:00014350       __acrt_locale_free_monetary 0000000180015350 f   libucrt:initmon.obj
 0001:0001445c       __acrt_locale_free_numeric 000000018001545c f   libucrt:initnum.obj
 0001:0001451c       __acrt_locale_free_time    000000018001551c f   libucrt:inittime.obj
 0001:0001493c       __acrt_LCMapStringA        000000018001593c f   libucrt:lcmapstringa.obj
 0001:000149d4       _query_new_mode            00000001800159d4 f   libucrt:new_mode.obj
 0001:000149dc       ?__mbrtowc_utf8@__crt_mbstring@@YA_KPEA_WPEBD_KPEAU_Mbstatet@@@Z 00000001800159dc f   libucrt:mbrtowc.obj
 0001:00014a18       ?__mbsrtowcs_utf8@__crt_mbstring@@YA_KPEA_WPEAPEBD_KPEAU_Mbstatet@@@Z 0000000180015a18 f   libucrt:mbrtowc.obj
 0001:00014b90       __acrt_fp_strflt_to_string 0000000180015b90 f   libucrt:_fptostr.obj
 0001:00014c80       ?divide@__crt_strtox@@YA_KAEAUbig_integer@1@AEBU21@@Z 0000000180015c80 f i libucrt:cfout.obj
 0001:00015110       __acrt_fltout              0000000180016110 f   libucrt:cfout.obj
 0001:00016634       __acrt_stdio_flush_and_write_narrow_nolock 0000000180017634 f   libucrt:_flsbuf.obj
 0001:0001671c       __acrt_stdio_flush_and_write_wide_nolock 000000018001771c f   libucrt:_flsbuf.obj
 0001:00016808       _fcloseall                 0000000180017808 f   libucrt:closeall.obj
 0001:000168bc       __acrt_stdio_free_buffer_nolock 00000001800178bc f   libucrt:_freebuf.obj
 0001:000168fc       _isatty                    00000001800178fc f   libucrt:isatty.obj
 0001:0001695c       __acrt_lowio_create_handle_array 000000018001795c f   libucrt:osfinfo.obj
 0001:000169f4       __acrt_lowio_destroy_handle_array 00000001800179f4 f   libucrt:osfinfo.obj
 0001:00016a44       __acrt_lowio_ensure_fh_exists 0000000180017a44 f   libucrt:osfinfo.obj
 0001:00016aec       __acrt_lowio_lock_fh       0000000180017aec f   libucrt:osfinfo.obj
 0001:00016b10       __acrt_lowio_unlock_fh     0000000180017b10 f   libucrt:osfinfo.obj
 0001:00016b34       _free_osfhnd               0000000180017b34 f   libucrt:osfinfo.obj
 0001:00016bf0       _get_osfhandle             0000000180017bf0 f   libucrt:osfinfo.obj
 0001:00016cf4       _commit                    0000000180017cf4 f   libucrt:commit.obj
 0001:00017330       _write                     0000000180018330 f   libucrt:write.obj
 0001:0001741c       _write_nolock              000000018001841c f   libucrt:write.obj
 0001:00017700       qsort                      0000000180018700 f   libucrt:qsort.obj
 0001:00017b50       strpbrk                    0000000180018b50 f   libucrt:strpbrk.obj
 0001:00017f30       ??$__acrt_convert_wcs_mbs@D_W$$A6A_KPEA_WPEBD_KPEAU__crt_locale_pointers@@@ZU__crt_win32_buffer_internal_dynamic_resizing@@@@YAHQEBDAEAV?$__crt_win32_buffer@_WU__crt_win32_buffer_internal_dynamic_resizing@@@@A6A_KPEA_WPEBD_KPEAU__crt_locale_pointers@@@Z5@Z 0000000180018f30 f i libucrt:findfirstfileexa.obj
 0001:00018038       __acrt_FindFirstFileExA    0000000180019038 f   libucrt:findfirstfileexa.obj
 0001:000180dc       ??$__acrt_convert_wcs_mbs@_WD$$A6A_KPEADPEB_W_KPEAU__crt_locale_pointers@@@ZU__crt_win32_buffer_no_resizing@@@@YAHQEB_WAEAV?$__crt_win32_buffer@DU__crt_win32_buffer_no_resizing@@@@A6A_KPEADPEB_W_KPEAU__crt_locale_pointers@@@Z5@Z 00000001800190dc f i libucrt:findnextfilea.obj
 0001:000181a8       __acrt_FindNextFileA       00000001800191a8 f   libucrt:findnextfilea.obj
 0001:000182dc       _mbsdec                    00000001800192dc f   libucrt:mbsdec.obj
 0001:000182e4       _mbsdec_l                  00000001800192e4 f   libucrt:mbsdec.obj
 0001:00018390       _msize                     0000000180019390 f   libucrt:msize.obj
 0001:00018398       _msize_base                0000000180019398 f   libucrt:msize.obj
 0001:000183d4       _realloc_base              00000001800193d4 f   libucrt:realloc_base.obj
 0001:00018538       __acrt_DownlevelLocaleNameToLCID 0000000180019538 f   libucrt:lcidtoname_downlevel.obj
 0001:0001856c       __strncnt                  000000018001956c f   libucrt:strncnt.obj
 0001:00018584       ?__mbrtoc32_utf8@__crt_mbstring@@YA_KPEA_UPEBD_KPEAU_Mbstatet@@@Z 0000000180019584 f   libucrt:mbrtoc32.obj
 0001:00018760       fegetenv                   0000000180019760 f   libucrt:fegetenv.obj
 0001:00018780       fesetenv                   0000000180019780 f   libucrt:fesetenv.obj
 0001:000187d0       feholdexcept               00000001800197d0 f   libucrt:feholdexcept.obj
 0001:00018820       ceil                       0000000180019820 f   libucrt:ceil.obj
 0001:000188f0       log10                      00000001800198f0 f   libucrt:log10.obj
 0001:00019028       _lseeki64                  000000018001a028 f   libucrt:lseek.obj
 0001:00019030       _lseeki64_nolock           000000018001a030 f   libucrt:lseek.obj
 0001:00019038       __acrt_stdio_allocate_buffer_nolock 000000018001a038 f   libucrt:_getbuf.obj
 0001:000190a0       _fclose_nolock             000000018001a0a0 f   libucrt:fclose.obj
 0001:00019124       fclose                     000000018001a124 f   libucrt:fclose.obj
 0001:00019188       _putwch_nolock             000000018001a188 f   libucrt:putwch.obj
 0001:0001952c       _wcstombs_l                000000018001a52c f   libucrt:wcstombs.obj
 0001:00019534       __acrt_fenv_get_control    000000018001a534 f   libucrt:_fenvutils.obj
 0001:00019634       __acrt_fenv_get_status     000000018001a634 f   libucrt:_fenvutils.obj
 0001:0001968c       __acrt_fenv_set_control    000000018001a68c f   libucrt:_fenvutils.obj
 0001:000197d4       __acrt_fenv_set_status     000000018001a7d4 f   libucrt:_fenvutils.obj
 0001:00019858       _clearfp                   000000018001a858 f   libucrt:ieee.obj
 0001:000199ec       _handle_error              000000018001a9ec f   libucrt:libm_error.obj
 0001:00019b14       _handle_nan                000000018001ab14 f   libucrt:libm_error.obj
 0001:00019b30       __acrt_initialize_fma3     000000018001ab30 f   libucrt:fma3_available.obj
 0001:00019ba0       _log10_special             000000018001aba0 f   libucrt:log_special.obj
 0001:00019ccc       _close                     000000018001accc f   libucrt:close.obj
 0001:00019d70       _close_nolock              000000018001ad70 f   libucrt:close.obj
 0001:00019e2c       ?__acrt_stdio_free_stream@@YAXV__crt_stdio_stream@@@Z 000000018001ae2c f   libucrt:stream.obj
 0001:00019e48       __dcrt_lowio_ensure_console_output_initialized 000000018001ae48 f   libucrt:initcon.obj
 0001:00019e9c       __dcrt_terminate_console_output 000000018001ae9c f   libucrt:initcon.obj
 0001:00019eb8       __dcrt_write_console       000000018001aeb8 f   libucrt:initcon.obj
 0001:00019f78       ?__wcsrtombs_utf8@__crt_mbstring@@YA_KPEADPEAPEB_W_KPEAU_Mbstatet@@@Z 000000018001af78 f   libucrt:wcrtomb.obj
 0001:0001a0b0       _get_fpsr                  000000018001b0b0 f   libucrt:fpsr.obj
 0001:0001a0c0       _set_fpsr                  000000018001b0c0 f   libucrt:fpsr.obj
 0001:0001a0ca       _fclrf                     000000018001b0ca f   libucrt:fpsr.obj
 0001:0001a0de       _frnd                      000000018001b0de f   libucrt:fpsr.obj
 0001:0001a100       _raise_exc                 000000018001b100 f   libucrt:fpexcept.obj
 0001:0001a128       _raise_exc_ex              000000018001b128 f   libucrt:fpexcept.obj
 0001:0001a438       _set_errno_from_matherr    000000018001b438 f   libucrt:fpexcept.obj
 0001:0001a468       _clrfp                     000000018001b468 f   libucrt:fpctrl.obj
 0001:0001a488       _ctrlfp                    000000018001b488 f   libucrt:fpctrl.obj
 0001:0001a504       _set_statfp                000000018001b504 f   libucrt:fpctrl.obj
 0001:0001a524       _statfp                    000000018001b524 f   libucrt:fpctrl.obj
 0001:0001a538       ?__c16rtomb_utf8@__crt_mbstring@@YA_KPEAD_SPEAU_Mbstatet@@@Z 000000018001b538 f   libucrt:c16rtomb.obj
 0001:0001a5e0       ?__c32rtomb_utf8@__crt_mbstring@@YA_KPEAD_UPEAU_Mbstatet@@@Z 000000018001b5e0 f   libucrt:c32rtomb.obj
 0001:0001a698       c32rtomb                   000000018001b698 f   libucrt:c32rtomb.obj
 0001:0001a69d       IsProcessorFeaturePresent  000000018001b69d f   kernel32:KERNEL32.dll
 0001:0001a6a4       ?DloadAcquireSectionWriteAccess@@YAXXZ 000000018001b6a4 f i DelayImp:delayhlp.obj
 0001:0001a750       ?DloadGetSRWLockFunctionPointers@@YAEXZ 000000018001b750 f i DelayImp:delayhlp.obj
 0001:0001a7ec       ?DloadMakePermanentImageCommit@@YAXPEAX_K@Z 000000018001b7ec f i DelayImp:delayhlp.obj
 0001:0001a884       ?DloadObtainSection@@YAPEAXPEAK0@Z 000000018001b884 f i DelayImp:delayhlp.obj
 0001:0001a920       ?DloadProtectSection@@YAXKPEAK@Z 000000018001b920 f i DelayImp:delayhlp.obj
 0001:0001a9b0       ?DloadReleaseSectionWriteAccess@@YAXXZ 000000018001b9b0 f i DelayImp:delayhlp.obj
 0001:0001aa44       __delayLoadHelper2         000000018001ba44 f   DelayImp:delayhlp.obj
 0001:0001ad10       _FindPESection             000000018001bd10 f   LIBCMT:pesect.obj
 0001:0001ad60       _IsNonwritableInCurrentImage 000000018001bd60 f   LIBCMT:pesect.obj
 0001:0001adb0       _ValidateImageBase         000000018001bdb0 f   LIBCMT:pesect.obj
 0001:0001ade0       __GSHandlerCheck           000000018001bde0 f   LIBCMT:_gshandler_.obj
 0001:0001ae00       __GSHandlerCheckCommon     000000018001be00 f   LIBCMT:_gshandler_.obj
 0001:0001ae70       __chkstk                   000000018001be70 f   LIBCMT:_chkstk_.obj
 0001:0001ae70       _alloca_probe              000000018001be70 f   LIBCMT:_chkstk_.obj
 0001:0001aec4       __GSHandlerCheck_EH        000000018001bec4 f   LIBCMT:gshandlereh.obj
 0001:0001af60       memcmp                     000000018001bf60 f   libvcruntime:memcmp.obj
 0001:0001b028       strrchr                    000000018001c028 f   libvcruntime:strrchr.obj
 0001:0001b190       _guard_dispatch_icall_nop  000000018001c190 f   LIBCMT:_guard_dispatch_.obj
 0002:00000000       __imp_GetModuleHandleA     000000018001d000     kernel32:KERNEL32.dll
 0002:00000008       __imp_LoadLibraryExA       000000018001d008     kernel32:KERNEL32.dll
 0002:00000010       __imp_RtlCaptureContext    000000018001d010     kernel32:KERNEL32.dll
 0002:00000018       __imp_RtlLookupFunctionEntry 000000018001d018     kernel32:KERNEL32.dll
 0002:00000020       __imp_RtlVirtualUnwind     000000018001d020     kernel32:KERNEL32.dll
 0002:00000028       __imp_UnhandledExceptionFilter 000000018001d028     kernel32:KERNEL32.dll
 0002:00000030       __imp_SetUnhandledExceptionFilter 000000018001d030     kernel32:KERNEL32.dll
 0002:00000038       __imp_GetCurrentProcess    000000018001d038     kernel32:KERNEL32.dll
 0002:00000040       __imp_TerminateProcess     000000018001d040     kernel32:KERNEL32.dll
 0002:00000048       __imp_IsProcessorFeaturePresent 000000018001d048     kernel32:KERNEL32.dll
 0002:00000050       __imp_QueryPerformanceCounter 000000018001d050     kernel32:KERNEL32.dll
 0002:00000058       __imp_GetCurrentProcessId  000000018001d058     kernel32:KERNEL32.dll
 0002:00000060       __imp_GetCurrentThreadId   000000018001d060     kernel32:KERNEL32.dll
 0002:00000068       __imp_GetSystemTimeAsFileTime 000000018001d068     kernel32:KERNEL32.dll
 0002:00000070       __imp_InitializeSListHead  000000018001d070     kernel32:KERNEL32.dll
 0002:00000078       __imp_IsDebuggerPresent    000000018001d078     kernel32:KERNEL32.dll
 0002:00000080       __imp_GetStartupInfoW      000000018001d080     kernel32:KERNEL32.dll
 0002:00000088       __imp_GetModuleHandleW     000000018001d088     kernel32:KERNEL32.dll
 0002:00000090       __imp_RtlUnwindEx          000000018001d090     kernel32:KERNEL32.dll
 0002:00000098       __imp_RtlPcToFileHeader    000000018001d098     kernel32:KERNEL32.dll
 0002:000000a0       __imp_RaiseException       000000018001d0a0     kernel32:KERNEL32.dll
 0002:000000a8       __imp_InterlockedFlushSList 000000018001d0a8     kernel32:KERNEL32.dll
 0002:000000b0       __imp_GetLastError         000000018001d0b0     kernel32:KERNEL32.dll
 0002:000000b8       __imp_SetLastError         000000018001d0b8     kernel32:KERNEL32.dll
 0002:000000c0       __imp_EnterCriticalSection 000000018001d0c0     kernel32:KERNEL32.dll
 0002:000000c8       __imp_LeaveCriticalSection 000000018001d0c8     kernel32:KERNEL32.dll
 0002:000000d0       __imp_DeleteCriticalSection 000000018001d0d0     kernel32:KERNEL32.dll
 0002:000000d8       __imp_InitializeCriticalSectionAndSpinCount 000000018001d0d8     kernel32:KERNEL32.dll
 0002:000000e0       __imp_TlsAlloc             000000018001d0e0     kernel32:KERNEL32.dll
 0002:000000e8       __imp_TlsGetValue          000000018001d0e8     kernel32:KERNEL32.dll
 0002:000000f0       __imp_TlsSetValue          000000018001d0f0     kernel32:KERNEL32.dll
 0002:000000f8       __imp_TlsFree              000000018001d0f8     kernel32:KERNEL32.dll
 0002:00000100       __imp_FreeLibrary          000000018001d100     kernel32:KERNEL32.dll
 0002:00000108       __imp_GetProcAddress       000000018001d108     kernel32:KERNEL32.dll
 0002:00000110       __imp_LoadLibraryExW       000000018001d110     kernel32:KERNEL32.dll
 0002:00000118       __imp_EncodePointer        000000018001d118     kernel32:KERNEL32.dll
 0002:00000120       __imp_GetStdHandle         000000018001d120     kernel32:KERNEL32.dll
 0002:00000128       __imp_GetFileType          000000018001d128     kernel32:KERNEL32.dll
 0002:00000130       __imp_GetModuleFileNameW   000000018001d130     kernel32:KERNEL32.dll
 0002:00000138       __imp_GetModuleHandleExW   000000018001d138     kernel32:KERNEL32.dll
 0002:00000140       __imp_WriteConsoleW        000000018001d140     kernel32:KERNEL32.dll
 0002:00000148       __imp_ExitProcess          000000018001d148     kernel32:KERNEL32.dll
 0002:00000150       __imp_HeapFree             000000018001d150     kernel32:KERNEL32.dll
 0002:00000158       __imp_HeapAlloc            000000018001d158     kernel32:KERNEL32.dll
 0002:00000160       __imp_WriteFile            000000018001d160     kernel32:KERNEL32.dll
 0002:00000168       __imp_OutputDebugStringW   000000018001d168     kernel32:KERNEL32.dll
 0002:00000170       __imp_FindClose            000000018001d170     kernel32:KERNEL32.dll
 0002:00000178       __imp_FindFirstFileExW     000000018001d178     kernel32:KERNEL32.dll
 0002:00000180       __imp_FindNextFileW        000000018001d180     kernel32:KERNEL32.dll
 0002:00000188       __imp_IsValidCodePage      000000018001d188     kernel32:KERNEL32.dll
 0002:00000190       __imp_GetACP               000000018001d190     kernel32:KERNEL32.dll
 0002:00000198       __imp_GetOEMCP             000000018001d198     kernel32:KERNEL32.dll
 0002:000001a0       __imp_GetCPInfo            000000018001d1a0     kernel32:KERNEL32.dll
 0002:000001a8       __imp_GetCommandLineA      000000018001d1a8     kernel32:KERNEL32.dll
 0002:000001b0       __imp_GetCommandLineW      000000018001d1b0     kernel32:KERNEL32.dll
 0002:000001b8       __imp_MultiByteToWideChar  000000018001d1b8     kernel32:KERNEL32.dll
 0002:000001c0       __imp_WideCharToMultiByte  000000018001d1c0     kernel32:KERNEL32.dll
 0002:000001c8       __imp_GetEnvironmentStringsW 000000018001d1c8     kernel32:KERNEL32.dll
 0002:000001d0       __imp_FreeEnvironmentStringsW 000000018001d1d0     kernel32:KERNEL32.dll
 0002:000001d8       __imp_LCMapStringW         000000018001d1d8     kernel32:KERNEL32.dll
 0002:000001e0       __imp_GetProcessHeap       000000018001d1e0     kernel32:KERNEL32.dll
 0002:000001e8       __imp_GetStringTypeW       000000018001d1e8     kernel32:KERNEL32.dll
 0002:000001f0       __imp_SetStdHandle         000000018001d1f0     kernel32:KERNEL32.dll
 0002:000001f8       __imp_FlushFileBuffers     000000018001d1f8     kernel32:KERNEL32.dll
 0002:00000200       __imp_GetConsoleCP         000000018001d200     kernel32:KERNEL32.dll
 0002:00000208       __imp_GetConsoleMode       000000018001d208     kernel32:KERNEL32.dll
 0002:00000210       __imp_HeapSize             000000018001d210     kernel32:KERNEL32.dll
 0002:00000218       __imp_HeapReAlloc          000000018001d218     kernel32:KERNEL32.dll
 0002:00000220       __imp_SetFilePointerEx     000000018001d220     kernel32:KERNEL32.dll
 0002:00000228       __imp_CloseHandle          000000018001d228     kernel32:KERNEL32.dll
 0002:00000230       __imp_CreateFileW          000000018001d230     kernel32:KERNEL32.dll
 0002:00000238       __imp_GetSystemInfo        000000018001d238     kernel32:KERNEL32.dll
 0002:00000240       __imp_VirtualProtect       000000018001d240     kernel32:KERNEL32.dll
 0002:00000248       __imp_VirtualQuery         000000018001d248     kernel32:KERNEL32.dll
 0002:00000250       \177KERNEL32_NULL_THUNK_DATA 000000018001d250     kernel32:KERNEL32.dll
 0002:00000258       __guard_check_icall_fptr   000000018001d258     LIBCMT:guard_support.obj
 0002:00000260       __guard_dispatch_icall_fptr 000000018001d260     LIBCMT:guard_support.obj
 0002:00000268       __xc_a                     000000018001d268     LIBCMT:initializers.obj
 0002:00000270       _register_binding_         000000018001d270     binding.obj
 0002:00000278       __xc_z                     000000018001d278     LIBCMT:initializers.obj
 0002:00000280       __xi_a                     000000018001d280     LIBCMT:initializers.obj
 0002:00000288       __acrt_stdio_initializer   000000018001d288     libucrt:stdio_initializer.obj
 0002:00000290       __acrt_multibyte_initializer 000000018001d290     libucrt:multibyte_initializer.obj
 0002:00000298       __acrt_tran_fma3_initializer 000000018001d298     libucrt:fma3_initializer.obj
 0002:000002a0       __xi_z                     000000018001d2a0     LIBCMT:initializers.obj
 0002:000002a8       __xp_a                     000000018001d2a8     LIBCMT:initializers.obj
 0002:000002b0       __acrt_locale_terminator   000000018001d2b0     libucrt:locale_initializer.obj
 0002:000002b8       __dcrt_console_output_terminator 000000018001d2b8     libucrt:console_output_initializer.obj
 0002:000002c0       __acrt_stdio_terminator    000000018001d2c0     libucrt:stdio_initializer.obj
 0002:000002c8       __xp_z                     000000018001d2c8     LIBCMT:initializers.obj
 0002:000002d0       __xt_a                     000000018001d2d0     LIBCMT:initializers.obj
 0002:000002d8       __xt_z                     000000018001d2d8     LIBCMT:initializers.obj
 0002:000002e0       __sz_node_exe              000000018001d2e0     node:node.exe
 0002:000002f0       _pDefaultRawDllMain        000000018001d2f0     LIBCMT:dll_dllmain.obj
 0002:000002f0       _pRawDllMain               000000018001d2f0     LIBCMT:dll_dllmain.obj
 0002:00000310       ??_7exception@std@@6B@     000000018001d310     LIBCMT:throw_bad_alloc.obj
 0002:00000320       ??_C@_0BC@EOODALEL@Unknown?5exception@ 000000018001d320     LIBCMT:throw_bad_alloc.obj
 0002:00000340       ??_7bad_alloc@std@@6B@     000000018001d340     LIBCMT:throw_bad_alloc.obj
 0002:00000350       ??_C@_0P@GHFPNOJB@bad?5allocation@ 000000018001d350     LIBCMT:throw_bad_alloc.obj
 0002:00000368       ??_7bad_array_new_length@std@@6B@ 000000018001d368     LIBCMT:throw_bad_alloc.obj
 0002:00000378       ??_C@_0BF@KINCDENJ@bad?5array?5new?5length@ 000000018001d378     LIBCMT:throw_bad_alloc.obj
 0002:00000398       ??_7type_info@@6B@         000000018001d398     LIBCMT:std_type_info_static.obj
 0002:000003e0       _pDestructExceptionObject  000000018001d3e0     libvcruntime:ehhelpers.obj
 0002:00000728       ??_C@_08EHJDFFNH@__based?$CI@ 000000018001d728     libvcruntime:undname.obj
 0002:00000738       ??_C@_07KOLFKCDI@__cdecl@  000000018001d738     libvcruntime:undname.obj
 0002:00000740       ??_C@_08GHMPAG@__pascal@   000000018001d740     libvcruntime:undname.obj
 0002:00000750       ??_C@_09IFJBGAPI@__stdcall@ 000000018001d750     libvcruntime:undname.obj
 0002:00000760       ??_C@_0L@NPHFGOKO@__thiscall@ 000000018001d760     libvcruntime:undname.obj
 0002:00000770       ??_C@_0L@JMKHOMEK@__fastcall@ 000000018001d770     libvcruntime:undname.obj
 0002:00000780       ??_C@_0N@BCKKPABJ@__vectorcall@ 000000018001d780     libvcruntime:undname.obj
 0002:00000790       ??_C@_09HIJEGCPM@__clrcall@ 000000018001d790     libvcruntime:undname.obj
 0002:0000079c       ??_C@_06GHPCKEAG@__eabi@   000000018001d79c     libvcruntime:undname.obj
 0002:000007a8       ??_C@_09IOPIDJLG@__swift_1@ 000000018001d7a8     libvcruntime:undname.obj
 0002:000007b8       ??_C@_09KFNFGKHF@__swift_2@ 000000018001d7b8     libvcruntime:undname.obj
 0002:000007c8       ??_C@_07JOMMBBKO@__ptr64@  000000018001d7c8     libvcruntime:undname.obj
 0002:000007d0       ??_C@_0L@PILCLIHE@__restrict@ 000000018001d7d0     libvcruntime:undname.obj
 0002:000007e0       ??_C@_0M@GFIIJFMG@__unaligned@ 000000018001d7e0     libvcruntime:undname.obj
 0002:000007f0       ??_C@_09DHDLOLLB@restrict?$CI@ 000000018001d7f0     libvcruntime:undname.obj
 0002:000007fa       ??_C@_00CNPNBAHC@@         000000018001d7fa     libvcruntime:undname.obj
 0002:000007fc       ??_C@_04NIHEBCM@?5new@     000000018001d7fc     libvcruntime:undname.obj
 0002:00000808       ??_C@_07FPCDHGMM@?5delete@ 000000018001d808     libvcruntime:undname.obj
 0002:00000810       ??_C@_01NEMOKFLO@?$DN@     000000018001d810     libvcruntime:undname.obj
 0002:00000814       ??_C@_02GPIOPFAK@?$DO?$DO@ 000000018001d814     libvcruntime:undname.obj
 0002:00000818       ??_C@_02FODMEDOG@?$DM?$DM@ 000000018001d818     libvcruntime:undname.obj
 0002:0000081c       ??_C@_01DCLJPIOD@?$CB@     000000018001d81c     libvcruntime:undname.obj
 0002:00000820       ??_C@_02EGOFBIJA@?$DN?$DN@ 000000018001d820     libvcruntime:undname.obj
 0002:00000824       ??_C@_02FDNJECIE@?$CB?$DN@ 000000018001d824     libvcruntime:undname.obj
 0002:00000828       ??_C@_02GPECMEKF@?$FL?$FN@ 000000018001d828     libvcruntime:undname.obj
 0002:00000830       ??_C@_08LHJFAFGD@operator@ 000000018001d830     libvcruntime:undname.obj
 0002:0000083c       ??_C@_02HBOOOICD@?9?$DO@   000000018001d83c     libvcruntime:undname.obj
 0002:00000840       ??_C@_01NBENCBCI@?$CK@     000000018001d840     libvcruntime:undname.obj
 0002:00000844       ??_C@_02ECNGHCIF@?$CL?$CL@ 000000018001d844     libvcruntime:undname.obj
 0002:00000848       ??_C@_02BAABKJLB@?9?9@     000000018001d848     libvcruntime:undname.obj
 0002:0000084c       ??_C@_01JOAMLHOP@?9@       000000018001d84c     libvcruntime:undname.obj
 0002:00000850       ??_C@_01MIFGBAGJ@?$CL@     000000018001d850     libvcruntime:undname.obj
 0002:00000854       ??_C@_01HNPIGOCE@?$CG@     000000018001d854     libvcruntime:undname.obj
 0002:00000858       ??_C@_03MNHNFDLC@?9?$DO?$CK@ 000000018001d858     libvcruntime:undname.obj
 0002:0000085c       ??_C@_01KMDKNFGN@?1@       000000018001d85c     libvcruntime:undname.obj
 0002:00000860       ??_C@_01FGNFDNOH@?$CF@     000000018001d860     libvcruntime:undname.obj
 0002:00000864       ??_C@_01MNNFJEPP@?$DM@     000000018001d864     libvcruntime:undname.obj
 0002:00000868       ??_C@_02EHCHHCKH@?$DM?$DN@ 000000018001d868     libvcruntime:undname.obj
 0002:0000086c       ??_C@_01PPODPGHN@?$DO@     000000018001d86c     libvcruntime:undname.obj
 0002:00000870       ??_C@_02EEKDKGMJ@?$DO?$DN@ 000000018001d870     libvcruntime:undname.obj
 0002:00000874       ??_C@_01IHBHIGKO@?0@       000000018001d874     libvcruntime:undname.obj
 0002:00000878       ??_C@_02HCKGKOFO@?$CI?$CJ@ 000000018001d878     libvcruntime:undname.obj
 0002:0000087c       ??_C@_01PJKLJHI@?$HO@      000000018001d87c     libvcruntime:undname.obj
 0002:00000880       ??_C@_01JKBOJNNK@?$FO@     000000018001d880     libvcruntime:undname.obj
 0002:00000884       ??_C@_01DNKMNLPK@?$HM@     000000018001d884     libvcruntime:undname.obj
 0002:00000888       ??_C@_02PPKAJPJL@?$CG?$CG@ 000000018001d888     libvcruntime:undname.obj
 0002:0000088c       ??_C@_02NONPIBCD@?$HM?$HM@ 000000018001d88c     libvcruntime:undname.obj
 0002:00000890       ??_C@_02FPIMKNGF@?$CK?$DN@ 000000018001d890     libvcruntime:undname.obj
 0002:00000894       ??_C@_02FOEOMHFC@?$CL?$DN@ 000000018001d894     libvcruntime:undname.obj
 0002:00000898       ??_C@_02FKMDLLOA@?9?$DN@   000000018001d898     libvcruntime:undname.obj
 0002:0000089c       ??_C@_02FJEHGPIO@?1?$DN@   000000018001d89c     libvcruntime:undname.obj
 0002:000008a0       ??_C@_02FENAOKFI@?$CF?$DN@ 000000018001d8a0     libvcruntime:undname.obj
 0002:000008a4       ??_C@_03IKFCCPFF@?$DO?$DO?$DN@ 000000018001d8a4     libvcruntime:undname.obj
 0002:000008a8       ??_C@_03CDNPDDLA@?$DM?$DM?$DN@ 000000018001d8a8     libvcruntime:undname.obj
 0002:000008ac       ??_C@_02FGJGFEAB@?$CG?$DN@ 000000018001d8ac     libvcruntime:undname.obj
 0002:000008b0       ??_C@_02DHLNPPGH@?$HM?$DN@ 000000018001d8b0     libvcruntime:undname.obj
 0002:000008b4       ??_C@_02MHEGNOJ@?$FO?$DN@  000000018001d8b4     libvcruntime:undname.obj
 0002:000008b8       ??_C@_09IFPLHPGF@?$GAvftable?8@ 000000018001d8b8     libvcruntime:undname.obj
 0002:000008c8       ??_C@_09BLBHBJP@?$GAvbtable?8@ 000000018001d8c8     libvcruntime:undname.obj
 0002:000008d8       ??_C@_07FEEIOKP@?$GAvcall?8@ 000000018001d8d8     libvcruntime:undname.obj
 0002:000008e0       ??_C@_08LLFFHHDJ@?$GAtypeof?8@ 000000018001d8e0     libvcruntime:undname.obj
 0002:000008f0       ??_C@_0BF@KDPPACIK@?$GAlocal?5static?5guard?8@ 000000018001d8f0     libvcruntime:undname.obj
 0002:00000908       ??_C@_08OBABFOLI@?$GAstring?8@ 000000018001d908     libvcruntime:undname.obj
 0002:00000918       ??_C@_0BD@JDLKDPAB@?$GAvbase?5destructor?8@ 000000018001d918     libvcruntime:undname.obj
 0002:00000930       ??_C@_0BN@DEGPLNFK@?$GAvector?5deleting?5destructor?8@ 000000018001d930     libvcruntime:undname.obj
 0002:00000950       ??_C@_0BO@OBMKPJIG@?$GAdefault?5constructor?5closure?8@ 000000018001d950     libvcruntime:undname.obj
 0002:00000970       ??_C@_0BN@IMDCHIKM@?$GAscalar?5deleting?5destructor?8@ 000000018001d970     libvcruntime:undname.obj
 0002:00000990       ??_C@_0BO@PFGOCPJJ@?$GAvector?5constructor?5iterator?8@ 000000018001d990     libvcruntime:undname.obj
 0002:000009b0       ??_C@_0BN@LFPFMEDL@?$GAvector?5destructor?5iterator?8@ 000000018001d9b0     libvcruntime:undname.obj
 0002:000009d0       ??_C@_0CE@IKBNEHA@?$GAvector?5vbase?5constructor?5itera@ 000000018001d9d0     libvcruntime:undname.obj
 0002:000009f8       ??_C@_0BL@NILFHHPC@?$GAvirtual?5displacement?5map?8@ 000000018001d9f8     libvcruntime:undname.obj
 0002:00000a18       ??_C@_0CB@JONCMFFK@?$GAeh?5vector?5constructor?5iterator@ 000000018001da18     libvcruntime:undname.obj
 0002:00000a40       ??_C@_0CA@GCEOPDGL@?$GAeh?5vector?5destructor?5iterator?8@ 000000018001da40     libvcruntime:undname.obj
 0002:00000a60       ??_C@_0CH@OOJPLCPH@?$GAeh?5vector?5vbase?5constructor?5it@ 000000018001da60     libvcruntime:undname.obj
 0002:00000a88       ??_C@_0BL@LLKPOHJI@?$GAcopy?5constructor?5closure?8@ 000000018001da88     libvcruntime:undname.obj
 0002:00000aa8       ??_C@_0BA@KBCDOMBN@?$GAudt?5returning?8@ 000000018001daa8     libvcruntime:undname.obj
 0002:00000ab8       ??_C@_03KLGMFNMG@?$GAEH@   000000018001dab8     libvcruntime:undname.obj
 0002:00000abc       ??_C@_05KHLCHHI@?$GARTTI@  000000018001dabc     libvcruntime:undname.obj
 0002:00000ac8       ??_C@_0BA@KKLDJDLB@?$GAlocal?5vftable?8@ 000000018001dac8     libvcruntime:undname.obj
 0002:00000ad8       ??_C@_0CE@IIHCMGGL@?$GAlocal?5vftable?5constructor?5clos@ 000000018001dad8     libvcruntime:undname.obj
 0002:00000afc       ??_C@_06FHBGPFGH@?5new?$FL?$FN@ 000000018001dafc     libvcruntime:undname.obj
 0002:00000b08       ??_C@_09LBNFPBCA@?5delete?$FL?$FN@ 000000018001db08     libvcruntime:undname.obj
 0002:00000b18       ??_C@_0P@HJKNJFNN@?$GAomni?5callsig?8@ 000000018001db18     libvcruntime:undname.obj
 0002:00000b28       ??_C@_0BL@CNOONJFP@?$GAplacement?5delete?5closure?8@ 000000018001db28     libvcruntime:undname.obj
 0002:00000b48       ??_C@_0BN@CKNJLHMB@?$GAplacement?5delete?$FL?$FN?5closure?8@ 000000018001db48     libvcruntime:undname.obj
 0002:00000b68       ??_C@_0CG@CFDHKGGD@?$GAmanaged?5vector?5constructor?5ite@ 000000018001db68     libvcruntime:undname.obj
 0002:00000b90       ??_C@_0CF@IMGKMJNO@?$GAmanaged?5vector?5destructor?5iter@ 000000018001db90     libvcruntime:undname.obj
 0002:00000bb8       ??_C@_0CG@HLDDJMAG@?$GAeh?5vector?5copy?5constructor?5ite@ 000000018001dbb8     libvcruntime:undname.obj
 0002:00000be0       ??_C@_0CM@FCBBDIGB@?$GAeh?5vector?5vbase?5copy?5construct@ 000000018001dbe0     libvcruntime:undname.obj
 0002:00000c10       ??_C@_0BL@CLIPGLGB@?$GAdynamic?5initializer?5for?5?8@ 000000018001dc10     libvcruntime:undname.obj
 0002:00000c30       ??_C@_0CB@PDBIFEP@?$GAdynamic?5atexit?5destructor?5for?5@ 000000018001dc30     libvcruntime:undname.obj
 0002:00000c58       ??_C@_0CD@CGAJBKEJ@?$GAvector?5copy?5constructor?5iterat@ 000000018001dc58     libvcruntime:undname.obj
 0002:00000c80       ??_C@_0CJ@GJELGAMM@?$GAvector?5vbase?5copy?5constructor?5@ 000000018001dc80     libvcruntime:undname.obj
 0002:00000cb0       ??_C@_0CL@FGIJHLCE@?$GAmanaged?5vector?5copy?5constructo@ 000000018001dcb0     libvcruntime:undname.obj
 0002:00000ce0       ??_C@_0BM@PMGGMLDN@?$GAlocal?5static?5thread?5guard?8@ 000000018001dce0     libvcruntime:undname.obj
 0002:00000d00       ??_C@_0N@BDNMDMOL@operator?5?$CC?$CC?5@ 000000018001dd00     libvcruntime:undname.obj
 0002:00000d10       ??_C@_0BC@GGEBGALA@operator?5co_await@ 000000018001dd10     libvcruntime:undname.obj
 0002:00000d28       ??_C@_0BC@DAFEJGAK@?5Type?5Descriptor?8@ 000000018001dd28     libvcruntime:undname.obj
 0002:00000d40       ??_C@_0BM@LDKODKLH@?5Base?5Class?5Descriptor?5at?5?$CI@ 000000018001dd40     libvcruntime:undname.obj
 0002:00000d60       ??_C@_0BD@LGICGFMM@?5Base?5Class?5Array?8@ 000000018001dd60     libvcruntime:undname.obj
 0002:00000d78       ??_C@_0BN@MECKDCOJ@?5Class?5Hierarchy?5Descriptor?8@ 000000018001dd78     libvcruntime:undname.obj
 0002:00000d98       ??_C@_0BK@CFCOFLF@?5Complete?5Object?5Locator?8@ 000000018001dd98     libvcruntime:undname.obj
 0002:00000dd0       ??_C@_1DM@KHCHBNEB@?$AAa?$AAp?$AAi?$AA?9?$AAm?$AAs?$AA?9?$AAw?$AAi?$AAn?$AA?9?$AAc?$AAo?$AAr?$AAe@ 000000018001ddd0     libvcruntime:winapi_downlevel.obj
 0002:00000e10       ??_C@_1DK@LPPGFMPP@?$AAa?$AAp?$AAi?$AA?9?$AAm?$AAs?$AA?9?$AAw?$AAi?$AAn?$AA?9?$AAc?$AAo?$AAr?$AAe@ 000000018001de10     libvcruntime:winapi_downlevel.obj
 0002:00000e50       ??_C@_1BC@GDMECMAK@?$AAk?$AAe?$AAr?$AAn?$AAe?$AAl?$AA3?$AA2@ 000000018001de50     libvcruntime:winapi_downlevel.obj
 0002:00000e68       ??_C@_1BA@PFFKHIOG@?$AAa?$AAp?$AAi?$AA?9?$AAm?$AAs?$AA?9@ 000000018001de68     libvcruntime:winapi_downlevel.obj
 0002:00000e78       ??_C@_1BA@IAIFMGEF@?$AAe?$AAx?$AAt?$AA?9?$AAm?$AAs?$AA?9@ 000000018001de78     libvcruntime:winapi_downlevel.obj
 0002:00000e90       ??_C@_08KNHFBNJ@FlsAlloc@  000000018001de90     libvcruntime:winapi_downlevel.obj
 0002:00000ea8       ??_C@_07PEJMOBNF@FlsFree@  000000018001dea8     libvcruntime:winapi_downlevel.obj
 0002:00000eb8       ??_C@_0M@GDNOONDI@FlsGetValue@ 000000018001deb8     libvcruntime:winapi_downlevel.obj
 0002:00000ed0       ??_C@_0M@JCPCPOEF@FlsSetValue@ 000000018001ded0     libvcruntime:winapi_downlevel.obj
 0002:00000ee8       ??_C@_0BM@HCFOFFN@InitializeCriticalSectionEx@ 000000018001dee8     libvcruntime:winapi_downlevel.obj
 0002:00000fb0       ??_7bad_exception@std@@6B@ 000000018001dfb0     libvcruntime:frame.obj
 0002:00000fc0       ??_C@_0O@DPKOEFFH@bad?5exception@ 000000018001dfc0     libvcruntime:frame.obj
 0002:00000fd0       standard_lookup_table      000000018001dfd0     libucrt:output.obj
 0002:00001030       format_validation_lookup_table 000000018001e030     libucrt:output.obj
 0002:00001090       ??_C@_1O@CEDCILHN@?$AA?$CI?$AAn?$AAu?$AAl?$AAl?$AA?$CJ?$AA?$AA@ 000000018001e090     libucrt:output.obj
 0002:000010a0       ??_C@_06OJHGLDPL@?$CInull?$CJ?$AA@ 000000018001e0a0     libucrt:output.obj
 0002:00001210       ??_C@_1FE@LHBLIKM@?$AAA?$AAs?$AAs?$AAe?$AAr?$AAt?$AAi?$AAo?$AAn?$AA?5?$AAf?$AAa?$AAi?$AAl?$AAe?$AAd?$AA?3?$AA?5?$AA?$CF?$AAT?$AAs?$AA?0?$AA?5?$AAf?$AAi?$AAl?$AAe?$AA?5?$AA?$CF?$AAT?$AAs?$AA?0@ 000000018001e210     libucrt:assert.obj
 0002:00001270       ??_C@_1EK@MBDPDCGA@?$AAM?$AAi?$AAc?$AAr?$AAo?$AAs?$AAo?$AAf?$AAt?$AA?5?$AAV?$AAi?$AAs?$AAu?$AAa?$AAl?$AA?5?$AAC?$AA?$CL?$AA?$CL?$AA?5?$AAR?$AAu?$AAn?$AAt?$AAi?$AAm?$AAe?$AA?5?$AAL?$AAi?$AAb@ 000000018001e270     libucrt:assert.obj
 0002:000012c0       ??_C@_1CE@OJBNHDMO@?$AAA?$AAs?$AAs?$AAe?$AAr?$AAt?$AAi?$AAo?$AAn?$AA?5?$AAf?$AAa?$AAi?$AAl?$AAe?$AAd?$AA?$CB?$AA?$AA@ 000000018001e2c0     libucrt:assert.obj
 0002:000012e8       ??_C@_1BE@PHKBBGE@?$AAP?$AAr?$AAo?$AAg?$AAr?$AAa?$AAm?$AA?3?$AA?5?$AA?$AA@ 000000018001e2e8     libucrt:assert.obj
 0002:00001300       ??_C@_1O@HEMHKNDC@?$AAF?$AAi?$AAl?$AAe?$AA?3?$AA?5?$AA?$AA@ 000000018001e300     libucrt:assert.obj
 0002:00001310       ??_C@_1O@KCAFKHJE@?$AAL?$AAi?$AAn?$AAe?$AA?3?$AA?5?$AA?$AA@ 000000018001e310     libucrt:assert.obj
 0002:00001320       ??_C@_1BK@PEDCIPMA@?$AAE?$AAx?$AAp?$AAr?$AAe?$AAs?$AAs?$AAi?$AAo?$AAn?$AA?3?$AA?5?$AA?$AA@ 000000018001e320     libucrt:assert.obj
 0002:00001340       ??_C@_1OA@EGMLFBHJ@?$AAF?$AAo?$AAr?$AA?5?$AAi?$AAn?$AAf?$AAo?$AAr?$AAm?$AAa?$AAt?$AAi?$AAo?$AAn?$AA?5?$AAo?$AAn?$AA?5?$AAh?$AAo?$AAw?$AA?5?$AAy?$AAo?$AAu?$AAr?$AA?5?$AAp?$AAr?$AAo?$AAg@ 000000018001e340     libucrt:assert.obj
 0002:00001420       ??_C@_1HK@POCJMFGK@?$AA?$CI?$AAP?$AAr?$AAe?$AAs?$AAs?$AA?5?$AAR?$AAe?$AAt?$AAr?$AAy?$AA?5?$AAt?$AAo?$AA?5?$AAd?$AAe?$AAb?$AAu?$AAg?$AA?5?$AAt?$AAh?$AAe?$AA?5?$AAa?$AAp?$AAp?$AAl?$AAi?$AAc@ 000000018001e420     libucrt:assert.obj
 0002:000014a0       ??_C@_17LGKOMLJ@?$AA?4?$AA?4?$AA?4?$AA?$AA@ 000000018001e4a0     libucrt:assert.obj
 0002:000014a8       ??_C@_13LBAGMAIH@?$AA?6?$AA?$AA@ 000000018001e4a8     libucrt:assert.obj
 0002:000014ac       ??_C@_15IABLJNFO@?$AA?6?$AA?6?$AA?$AA@ 000000018001e4ac     libucrt:assert.obj
 0002:000014b8       ??_C@_1CO@EAEJAADC@?$AA?$DM?$AAp?$AAr?$AAo?$AAg?$AAr?$AAa?$AAm?$AA?5?$AAn?$AAa?$AAm?$AAe?$AA?5?$AAu?$AAn?$AAk?$AAn?$AAo?$AAw?$AAn?$AA?$DO?$AA?$AA@ 000000018001e4b8     libucrt:assert.obj
 0002:000014f0       ??_C@_0EA@FCLIIPNN@Visual?5C?$CL?$CL?5CRT?3?5Not?5enough?5memor@ 000000018001e4f0     libucrt:strerror.obj
 0002:00001530       __acrt_exception_action_table 000000018001e530     libucrt:exception_filter.obj
 0002:000015f0       __acrt_signal_action_table_count 000000018001e5f0     libucrt:exception_filter.obj
 0002:000015f8       __acrt_signal_action_first_fpe_index 000000018001e5f8     libucrt:exception_filter.obj
 0002:00001600       __acrt_signal_action_fpe_count 000000018001e600     libucrt:exception_filter.obj
 0002:00001608       ??_C@_1BI@BGOHAHKC@?$AAm?$AAs?$AAc?$AAo?$AAr?$AAe?$AAe?$AA?4?$AAd?$AAl?$AAl?$AA?$AA@ 000000018001e608     libucrt:exit.obj
 0002:00001620       ??_C@_0P@MIGLKIOC@CorExitProcess?$AA@ 000000018001e620     libucrt:exit.obj
 0002:00001730       __newctype                 000000018001e730     libucrt:ctype.obj
 0002:00001a30       __newclmap                 000000018001ea30     libucrt:ctype.obj
 0002:00001bb0       __newcumap                 000000018001ebb0     libucrt:ctype.obj
 0002:00001d30       _wctype                    000000018001ed30     libucrt:ctype.obj
 0002:00001f40       __lc_time_c                000000018001ef40     libucrt:nlsdata.obj
 0002:00002200       ??_C@_03KOEHGMDN@Sun?$AA@  000000018001f200     libucrt:nlsdata.obj
 0002:00002204       ??_C@_03PDAGKDH@Mon?$AA@   000000018001f204     libucrt:nlsdata.obj
 0002:00002208       ??_C@_03NAGEINEP@Tue?$AA@  000000018001f208     libucrt:nlsdata.obj
 0002:0000220c       ??_C@_03MHOMLAJA@Wed?$AA@  000000018001f20c     libucrt:nlsdata.obj
 0002:00002210       ??_C@_03IOFIKPDN@Thu?$AA@  000000018001f210     libucrt:nlsdata.obj
 0002:00002214       ??_C@_03IDIOELNC@Fri?$AA@  000000018001f214     libucrt:nlsdata.obj
 0002:00002218       ??_C@_03FEFJNEK@Sat?$AA@   000000018001f218     libucrt:nlsdata.obj
 0002:0000221c       ??_C@_06OOPIFAJ@Sunday?$AA@ 000000018001f21c     libucrt:nlsdata.obj
 0002:00002224       ??_C@_06JLEDEDGH@Monday?$AA@ 000000018001f224     libucrt:nlsdata.obj
 0002:00002230       ??_C@_07BAAGCFCM@Tuesday?$AA@ 000000018001f230     libucrt:nlsdata.obj
 0002:00002238       ??_C@_09DLIGFAKA@Wednesday?$AA@ 000000018001f238     libucrt:nlsdata.obj
 0002:00002248       ??_C@_08HACCIKIA@Thursday?$AA@ 000000018001f248     libucrt:nlsdata.obj
 0002:00002254       ??_C@_06JECMNKMI@Friday?$AA@ 000000018001f254     libucrt:nlsdata.obj
 0002:00002260       ??_C@_08INBOOONO@Saturday?$AA@ 000000018001f260     libucrt:nlsdata.obj
 0002:0000226c       ??_C@_03JIHJHPIE@Jan?$AA@  000000018001f26c     libucrt:nlsdata.obj
 0002:00002270       ??_C@_03HJBDCHOM@Feb?$AA@  000000018001f270     libucrt:nlsdata.obj
 0002:00002274       ??_C@_03ODNJBKGA@Mar?$AA@  000000018001f274     libucrt:nlsdata.obj
 0002:00002278       ??_C@_03LEOLGMJP@Apr?$AA@  000000018001f278     libucrt:nlsdata.obj
 0002:0000227c       ??_C@_03CNMDKL@May?$AA@    000000018001f27c     libucrt:nlsdata.obj
 0002:00002280       ??_C@_03IDFGHECI@Jun?$AA@  000000018001f280     libucrt:nlsdata.obj
 0002:00002284       ??_C@_03LBGABGKK@Jul?$AA@  000000018001f284     libucrt:nlsdata.obj
 0002:00002288       ??_C@_03IFJFEIGA@Aug?$AA@  000000018001f288     libucrt:nlsdata.obj
 0002:0000228c       ??_C@_03GGCAPAJC@Sep?$AA@  000000018001f28c     libucrt:nlsdata.obj
 0002:00002290       ??_C@_03BMAOKBAD@Oct?$AA@  000000018001f290     libucrt:nlsdata.obj
 0002:00002294       ??_C@_03JPJOFNIA@Nov?$AA@  000000018001f294     libucrt:nlsdata.obj
 0002:00002298       ??_C@_03MKABNOCG@Dec?$AA@  000000018001f298     libucrt:nlsdata.obj
 0002:000022a0       ??_C@_07CGJPFGJA@January?$AA@ 000000018001f2a0     libucrt:nlsdata.obj
 0002:000022a8       ??_C@_08GNJGEPFN@February?$AA@ 000000018001f2a8     libucrt:nlsdata.obj
 0002:000022b4       ??_C@_05HPCKOFNC@March?$AA@ 000000018001f2b4     libucrt:nlsdata.obj
 0002:000022bc       ??_C@_05DMJDNLEJ@April?$AA@ 000000018001f2bc     libucrt:nlsdata.obj
 0002:000022c4       ??_C@_04CNLMGBGM@June?$AA@ 000000018001f2c4     libucrt:nlsdata.obj
 0002:000022cc       ??_C@_04MIEPOIFP@July?$AA@ 000000018001f2cc     libucrt:nlsdata.obj
 0002:000022d4       ??_C@_06LBBHFDDG@August?$AA@ 000000018001f2d4     libucrt:nlsdata.obj
 0002:000022e0       ??_C@_09BHHEALKD@September?$AA@ 000000018001f2e0     libucrt:nlsdata.obj
 0002:000022f0       ??_C@_07JJNFCEND@October?$AA@ 000000018001f2f0     libucrt:nlsdata.obj
 0002:000022f8       ??_C@_08HCHEGEOA@November?$AA@ 000000018001f2f8     libucrt:nlsdata.obj
 0002:00002308       ??_C@_08EDHMEBNP@December?$AA@ 000000018001f308     libucrt:nlsdata.obj
 0002:00002314       ??_C@_02DEDBPAFC@AM?$AA@   000000018001f314     libucrt:nlsdata.obj
 0002:00002318       ??_C@_02CJNFDJBF@PM?$AA@   000000018001f318     libucrt:nlsdata.obj
 0002:00002320       ??_C@_08BPBNCDIB@MM?1dd?1yy?$AA@ 000000018001f320     libucrt:nlsdata.obj
 0002:00002330       ??_C@_0BE@CKGJFCPC@dddd?0?5MMMM?5dd?0?5yyyy?$AA@ 000000018001f330     libucrt:nlsdata.obj
 0002:00002348       ??_C@_08JCCMCCIL@HH?3mm?3ss?$AA@ 000000018001f348     libucrt:nlsdata.obj
 0002:00002358       ??_C@_17MBGCMIPB@?$AAS?$AAu?$AAn?$AA?$AA@ 000000018001f358     libucrt:nlsdata.obj
 0002:00002360       ??_C@_17KBOMKBF@?$AAM?$AAo?$AAn?$AA?$AA@ 000000018001f360     libucrt:nlsdata.obj
 0002:00002368       ??_C@_17BMKGEGOJ@?$AAT?$AAu?$AAe?$AA?$AA@ 000000018001f368     libucrt:nlsdata.obj
 0002:00002370       ??_C@_17CJEDCEPE@?$AAW?$AAe?$AAd?$AA?$AA@ 000000018001f370     libucrt:nlsdata.obj
 0002:00002378       ??_C@_17PDPHAADD@?$AAT?$AAh?$AAu?$AA?$AA@ 000000018001f378     libucrt:nlsdata.obj
 0002:00002380       ??_C@_17HFOLPPLP@?$AAF?$AAr?$AAi?$AA?$AA@ 000000018001f380     libucrt:nlsdata.obj
 0002:00002388       ??_C@_17GGIBDPIH@?$AAS?$AAa?$AAt?$AA?$AA@ 000000018001f388     libucrt:nlsdata.obj
 0002:00002390       ??_C@_1O@IHNHDHPB@?$AAS?$AAu?$AAn?$AAd?$AAa?$AAy?$AA?$AA@ 000000018001f390     libucrt:nlsdata.obj
 0002:000023a0       ??_C@_1O@MMNBFLIA@?$AAM?$AAo?$AAn?$AAd?$AAa?$AAy?$AA?$AA@ 000000018001f3a0     libucrt:nlsdata.obj
 0002:000023b0       ??_C@_1BA@ENFBFFEK@?$AAT?$AAu?$AAe?$AAs?$AAd?$AAa?$AAy?$AA?$AA@ 000000018001f3b0     libucrt:nlsdata.obj
 0002:000023c0       ??_C@_1BE@EBOGMDOH@?$AAW?$AAe?$AAd?$AAn?$AAe?$AAs?$AAd?$AAa?$AAy?$AA?$AA@ 000000018001f3c0     libucrt:nlsdata.obj
 0002:000023d8       ??_C@_1BC@HHMNLIHE@?$AAT?$AAh?$AAu?$AAr?$AAs?$AAd?$AAa?$AAy?$AA?$AA@ 000000018001f3d8     libucrt:nlsdata.obj
 0002:000023f0       ??_C@_1O@PDICJHAG@?$AAF?$AAr?$AAi?$AAd?$AAa?$AAy?$AA?$AA@ 000000018001f3f0     libucrt:nlsdata.obj
 0002:00002400       ??_C@_1BC@ENMNNPAJ@?$AAS?$AAa?$AAt?$AAu?$AAr?$AAd?$AAa?$AAy?$AA?$AA@ 000000018001f400     libucrt:nlsdata.obj
 0002:00002418       ??_C@_17DKNBKCHM@?$AAJ?$AAa?$AAn?$AA?$AA@ 000000018001f418     libucrt:nlsdata.obj
 0002:00002420       ??_C@_17LMDJEKJN@?$AAF?$AAe?$AAb?$AA?$AA@ 000000018001f420     libucrt:nlsdata.obj
 0002:00002428       ??_C@_17CKNLEDEC@?$AAM?$AAa?$AAr?$AA?$AA@ 000000018001f428     libucrt:nlsdata.obj
 0002:00002430       ??_C@_17LFPOIHDD@?$AAA?$AAp?$AAr?$AA?$AA@ 000000018001f430     libucrt:nlsdata.obj
 0002:00002438       ??_C@_17PNNKMEED@?$AAM?$AAa?$AAy?$AA?$AA@ 000000018001f438     libucrt:nlsdata.obj
 0002:00002440       ??_C@_17KCJGOCPB@?$AAJ?$AAu?$AAn?$AA?$AA@ 000000018001f440     libucrt:nlsdata.obj
 0002:00002448       ??_C@_17IJPCKHK@?$AAJ?$AAu?$AAl?$AA?$AA@ 000000018001f448     libucrt:nlsdata.obj
 0002:00002450       ??_C@_17ICPELBCN@?$AAA?$AAu?$AAg?$AA?$AA@ 000000018001f450     libucrt:nlsdata.obj
 0002:00002458       ??_C@_17HCHCOKMG@?$AAS?$AAe?$AAp?$AA?$AA@ 000000018001f458     libucrt:nlsdata.obj
 0002:00002460       ??_C@_17FNLKOI@?$AAO?$AAc?$AAt?$AA?$AA@ 000000018001f460     libucrt:nlsdata.obj
 0002:00002468       ??_C@_17BBDMLCIG@?$AAN?$AAo?$AAv?$AA?$AA@ 000000018001f468     libucrt:nlsdata.obj
 0002:00002470       ??_C@_17EGKACKIF@?$AAD?$AAe?$AAc?$AA?$AA@ 000000018001f470     libucrt:nlsdata.obj
 0002:00002478       ??_C@_1BA@EFMEIEBA@?$AAJ?$AAa?$AAn?$AAu?$AAa?$AAr?$AAy?$AA?$AA@ 000000018001f478     libucrt:nlsdata.obj
 0002:00002488       ??_C@_1BC@JGDDFFAM@?$AAF?$AAe?$AAb?$AAr?$AAu?$AAa?$AAr?$AAy?$AA?$AA@ 000000018001f488     libucrt:nlsdata.obj
 0002:000024a0       ??_C@_1M@IKEENEDF@?$AAM?$AAa?$AAr?$AAc?$AAh?$AA?$AA@ 000000018001f4a0     libucrt:nlsdata.obj
 0002:000024b0       ??_C@_1M@GJNLMHFD@?$AAA?$AAp?$AAr?$AAi?$AAl?$AA?$AA@ 000000018001f4b0     libucrt:nlsdata.obj
 0002:000024c0       ??_C@_19EPFLPGAP@?$AAJ?$AAu?$AAn?$AAe?$AA?$AA@ 000000018001f4c0     libucrt:nlsdata.obj
 0002:000024d0       ??_C@_19BIFMLPCD@?$AAJ?$AAu?$AAl?$AAy?$AA?$AA@ 000000018001f4d0     libucrt:nlsdata.obj
 0002:000024e0       ??_C@_1O@PAHLKOAC@?$AAA?$AAu?$AAg?$AAu?$AAs?$AAt?$AA?$AA@ 000000018001f4e0     libucrt:nlsdata.obj
 0002:000024f0       ??_C@_1BE@DKAAMBJL@?$AAS?$AAe?$AAp?$AAt?$AAe?$AAm?$AAb?$AAe?$AAr?$AA?$AA@ 000000018001f4f0     libucrt:nlsdata.obj
 0002:00002508       ??_C@_1BA@EPANDLNG@?$AAO?$AAc?$AAt?$AAo?$AAb?$AAe?$AAr?$AA?$AA@ 000000018001f508     libucrt:nlsdata.obj
 0002:00002518       ??_C@_1BC@BGLIFPF@?$AAN?$AAo?$AAv?$AAe?$AAm?$AAb?$AAe?$AAr?$AA?$AA@ 000000018001f518     libucrt:nlsdata.obj
 0002:00002530       ??_C@_1BC@FEMKIFH@?$AAD?$AAe?$AAc?$AAe?$AAm?$AAb?$AAe?$AAr?$AA?$AA@ 000000018001f530     libucrt:nlsdata.obj
 0002:00002544       ??_C@_15ODEHAHHF@?$AAA?$AAM?$AA?$AA@ 000000018001f544     libucrt:nlsdata.obj
 0002:0000254c       ??_C@_15CLMNNGEL@?$AAP?$AAM?$AA?$AA@ 000000018001f54c     libucrt:nlsdata.obj
 0002:00002558       ??_C@_1BC@IEBCMHCM@?$AAM?$AAM?$AA?1?$AAd?$AAd?$AA?1?$AAy?$AAy?$AA?$AA@ 000000018001f558     libucrt:nlsdata.obj
 0002:00002570       ??_C@_1CI@KNAKOEBC@?$AAd?$AAd?$AAd?$AAd?$AA?0?$AA?5?$AAM?$AAM?$AAM?$AAM?$AA?5?$AAd?$AAd?$AA?0?$AA?5?$AAy?$AAy?$AAy?$AAy?$AA?$AA@ 000000018001f570     libucrt:nlsdata.obj
 0002:00002598       ??_C@_1BC@GDGBMEMK@?$AAH?$AAH?$AA?3?$AAm?$AAm?$AA?3?$AAs?$AAs?$AA?$AA@ 000000018001f598     libucrt:nlsdata.obj
 0002:000025b0       ??_C@_1M@BMHNFIME@?$AAe?$AAn?$AA?9?$AAU?$AAS?$AA?$AA@ 000000018001f5b0     libucrt:nlsdata.obj
 0002:000025bc       ??_C@_03OEIAHPBN@INF?$AA@  000000018001f5bc     libucrt:cvt.obj
 0002:000025c0       ??_C@_03OJHLLCGB@inf?$AA@  000000018001f5c0     libucrt:cvt.obj
 0002:000025c4       ??_C@_03LKNCIKJB@NAN?$AA@  000000018001f5c4     libucrt:cvt.obj
 0002:000025c8       ??_C@_03LHCJEHON@nan?$AA@  000000018001f5c8     libucrt:cvt.obj
 0002:000025d0       ??_C@_09OFJJIMPC@NAN?$CISNAN?$CJ?$AA@ 000000018001f5d0     libucrt:cvt.obj
 0002:000025e0       ??_C@_09IPFBKMDL@nan?$CIsnan?$CJ?$AA@ 000000018001f5e0     libucrt:cvt.obj
 0002:000025f0       ??_C@_08IKHNHAJ@NAN?$CIIND?$CJ?$AA@ 000000018001f5f0     libucrt:cvt.obj
 0002:00002600       ??_C@_08OFCDMILK@nan?$CIind?$CJ?$AA@ 000000018001f600     libucrt:cvt.obj
 0002:0000260c       ??_C@_05KLBDPFGC@e?$CL000?$AA@ 000000018001f60c     libucrt:cvt.obj
 0002:00002620       _sys_errlist               000000018001f620     libucrt:syserr.obj
 0002:00002780       ??_C@_08INEPGKHH@No?5error?$AA@ 000000018001f780     libucrt:syserr.obj
 0002:00002790       ??_C@_0BI@BJFCGOHL@Operation?5not?5permitted?$AA@ 000000018001f790     libucrt:syserr.obj
 0002:000027a8       ??_C@_0BK@FMDHKPNF@No?5such?5file?5or?5directory?$AA@ 000000018001f7a8     libucrt:syserr.obj
 0002:000027c8       ??_C@_0BA@FKIAIBGA@No?5such?5process?$AA@ 000000018001f7c8     libucrt:syserr.obj
 0002:000027d8       ??_C@_0BK@FJBOAFDK@Interrupted?5function?5call?$AA@ 000000018001f7d8     libucrt:syserr.obj
 0002:000027f8       ??_C@_0BD@KKNFOBBD@Input?1output?5error?$AA@ 000000018001f7f8     libucrt:syserr.obj
 0002:00002810       ??_C@_0BK@DPKMCKJ@No?5such?5device?5or?5address?$AA@ 000000018001f810     libucrt:syserr.obj
 0002:00002830       ??_C@_0BC@MFFGCDFL@Arg?5list?5too?5long?$AA@ 000000018001f830     libucrt:syserr.obj
 0002:00002848       ??_C@_0BC@HKPNECK@Exec?5format?5error?$AA@ 000000018001f848     libucrt:syserr.obj
 0002:00002860       ??_C@_0BE@NFGDDCEF@Bad?5file?5descriptor?$AA@ 000000018001f860     libucrt:syserr.obj
 0002:00002878       ??_C@_0BD@LOHELEP@No?5child?5processes?$AA@ 000000018001f878     libucrt:syserr.obj
 0002:00002890       ??_C@_0CB@EPFKGNAK@Resource?5temporarily?5unavailable@ 000000018001f890     libucrt:syserr.obj
 0002:000028b8       ??_C@_0BB@IMDKMPFB@Not?5enough?5space?$AA@ 000000018001f8b8     libucrt:syserr.obj
 0002:000028d0       ??_C@_0BC@HFNFNKAI@Permission?5denied?$AA@ 000000018001f8d0     libucrt:syserr.obj
 0002:000028e8       ??_C@_0M@LOEHLCJD@Bad?5address?$AA@ 000000018001f8e8     libucrt:syserr.obj
 0002:000028f8       ??_C@_0O@NIPGCINC@Unknown?5error?$AA@ 000000018001f8f8     libucrt:syserr.obj
 0002:00002908       ??_C@_0BA@BIBLIOEK@Resource?5device?$AA@ 000000018001f908     libucrt:syserr.obj
 0002:00002918       ??_C@_0M@NAAJNNGH@File?5exists?$AA@ 000000018001f918     libucrt:syserr.obj
 0002:00002928       ??_C@_0O@OAMDNOCP@Improper?5link?$AA@ 000000018001f928     libucrt:syserr.obj
 0002:00002938       ??_C@_0P@NLEIANHE@No?5such?5device?$AA@ 000000018001f938     libucrt:syserr.obj
 0002:00002948       ??_C@_0BA@CJBACOOL@Not?5a?5directory?$AA@ 000000018001f948     libucrt:syserr.obj
 0002:00002958       ??_C@_0P@NDHGCGKE@Is?5a?5directory?$AA@ 000000018001f958     libucrt:syserr.obj
 0002:00002968       ??_C@_0BB@HMGGCEBG@Invalid?5argument?$AA@ 000000018001f968     libucrt:syserr.obj
 0002:00002980       ??_C@_0BO@IIFBODJE@Too?5many?5open?5files?5in?5system?$AA@ 000000018001f980     libucrt:syserr.obj
 0002:000029a0       ??_C@_0BE@INBJMKGG@Too?5many?5open?5files?$AA@ 000000018001f9a0     libucrt:syserr.obj
 0002:000029b8       ??_C@_0CE@ONOKNLPF@Inappropriate?5I?1O?5control?5operat@ 000000018001f9b8     libucrt:syserr.obj
 0002:000029e0       ??_C@_0P@LFMMIPAE@File?5too?5large?$AA@ 000000018001f9e0     libucrt:syserr.obj
 0002:000029f0       ??_C@_0BI@FEALHKLD@No?5space?5left?5on?5device?$AA@ 000000018001f9f0     libucrt:syserr.obj
 0002:00002a08       ??_C@_0N@FEHLOILP@Invalid?5seek?$AA@ 000000018001fa08     libucrt:syserr.obj
 0002:00002a18       ??_C@_0BG@DDBFNKBH@Read?9only?5file?5system?$AA@ 000000018001fa18     libucrt:syserr.obj
 0002:00002a30       ??_C@_0P@PKCJJLLM@Too?5many?5links?$AA@ 000000018001fa30     libucrt:syserr.obj
 0002:00002a40       ??_C@_0M@LHEPIIOM@Broken?5pipe?$AA@ 000000018001fa40     libucrt:syserr.obj
 0002:00002a50       ??_C@_0N@MMJPGLJK@Domain?5error?$AA@ 000000018001fa50     libucrt:syserr.obj
 0002:00002a60       ??_C@_0BB@FCBJFCAJ@Result?5too?5large?$AA@ 000000018001fa60     libucrt:syserr.obj
 0002:00002a78       ??_C@_0BK@JAEBMJJM@Resource?5deadlock?5avoided?$AA@ 000000018001fa78     libucrt:syserr.obj
 0002:00002a98       ??_C@_0BC@BEDIHIDK@Filename?5too?5long?$AA@ 000000018001fa98     libucrt:syserr.obj
 0002:00002ab0       ??_C@_0BD@CLHBCGPB@No?5locks?5available?$AA@ 000000018001fab0     libucrt:syserr.obj
 0002:00002ac8       ??_C@_0BJ@IHEHINLI@Function?5not?5implemented?$AA@ 000000018001fac8     libucrt:syserr.obj
 0002:00002ae8       ??_C@_0BE@ICMCHPHH@Directory?5not?5empty?$AA@ 000000018001fae8     libucrt:syserr.obj
 0002:00002b00       ??_C@_0BG@KLEAJEFJ@Illegal?5byte?5sequence?$AA@ 000000018001fb00     libucrt:syserr.obj
 0002:00002b18       _sys_nerr                  000000018001fb18     libucrt:syserr.obj
 0002:00002b40       ??_C@_1M@HPNHIDJI@?$AAj?$AAa?$AA?9?$AAJ?$AAP?$AA?$AA@ 000000018001fb40     libucrt:mbctype.obj
 0002:00002b50       ??_C@_1M@BIBDDEMK@?$AAz?$AAh?$AA?9?$AAC?$AAN?$AA?$AA@ 000000018001fb50     libucrt:mbctype.obj
 0002:00002b60       ??_C@_1M@JLOOOEGK@?$AAk?$AAo?$AA?9?$AAK?$AAR?$AA?$AA@ 000000018001fb60     libucrt:mbctype.obj
 0002:00002b70       ??_C@_1M@CLNBBOPM@?$AAz?$AAh?$AA?9?$AAT?$AAW?$AA?$AA@ 000000018001fb70     libucrt:mbctype.obj
 0002:00002c20       ??_C@_1EA@JGEFHKEI@?$AAa?$AAp?$AAi?$AA?9?$AAm?$AAs?$AA?9?$AAw?$AAi?$AAn?$AA?9?$AAc?$AAo?$AAr?$AAe?$AA?9?$AAd?$AAa?$AAt?$AAe?$AAt?$AAi?$AAm?$AAe?$AA?9?$AAl?$AA1?$AA?9?$AA1?$AA?9?$AA1?$AA?$AA@ 000000018001fc20     libucrt:winapi_thunks.obj
 0002:00002c60       ??_C@_1DM@KHCHBNEB@?$AAa?$AAp?$AAi?$AA?9?$AAm?$AAs?$AA?9?$AAw?$AAi?$AAn?$AA?9?$AAc?$AAo?$AAr?$AAe?$AA?9?$AAf?$AAi?$AAb?$AAe?$AAr?$AAs?$AA?9?$AAl?$AA1?$AA?9?$AA1?$AA?9?$AA1?$AA?$AA@ 000000018001fc60     libucrt:winapi_thunks.obj
 0002:00002ca0       ??_C@_1DI@IJCEHOCB@?$AAa?$AAp?$AAi?$AA?9?$AAm?$AAs?$AA?9?$AAw?$AAi?$AAn?$AA?9?$AAc?$AAo?$AAr?$AAe?$AA?9?$AAf?$AAi?$AAl?$AAe?$AA?9?$AAl?$AA1?$AA?9?$AA2?$AA?9?$AA2?$AA?$AA@ 000000018001fca0     libucrt:winapi_thunks.obj
 0002:00002ce0       ??_C@_1EI@MPIAOHOC@?$AAa?$AAp?$AAi?$AA?9?$AAm?$AAs?$AA?9?$AAw?$AAi?$AAn?$AA?9?$AAc?$AAo?$AAr?$AAe?$AA?9?$AAl?$AAo?$AAc?$AAa?$AAl?$AAi?$AAz?$AAa?$AAt?$AAi?$AAo?$AAn?$AA?9?$AAl?$AA1?$AA?9@ 000000018001fce0     libucrt:winapi_thunks.obj
 0002:00002d30       ??_C@_1FK@FPHCKFIE@?$AAa?$AAp?$AAi?$AA?9?$AAm?$AAs?$AA?9?$AAw?$AAi?$AAn?$AA?9?$AAc?$AAo?$AAr?$AAe?$AA?9?$AAl?$AAo?$AAc?$AAa?$AAl?$AAi?$AAz?$AAa?$AAt?$AAi?$AAo?$AAn?$AA?9?$AAo?$AAb?$AAs@ 000000018001fd30     libucrt:winapi_thunks.obj
 0002:00002d90       ??_C@_1EM@DILCGIIO@?$AAa?$AAp?$AAi?$AA?9?$AAm?$AAs?$AA?9?$AAw?$AAi?$AAn?$AA?9?$AAc?$AAo?$AAr?$AAe?$AA?9?$AAp?$AAr?$AAo?$AAc?$AAe?$AAs?$AAs?$AAt?$AAh?$AAr?$AAe?$AAa?$AAd?$AAs?$AA?9?$AAl@ 000000018001fd90     libucrt:winapi_thunks.obj
 0002:00002de0       ??_C@_1DM@LNCGDDPN@?$AAa?$AAp?$AAi?$AA?9?$AAm?$AAs?$AA?9?$AAw?$AAi?$AAn?$AA?9?$AAc?$AAo?$AAr?$AAe?$AA?9?$AAs?$AAt?$AAr?$AAi?$AAn?$AAg?$AA?9?$AAl?$AA1?$AA?9?$AA1?$AA?9?$AA0?$AA?$AA@ 000000018001fde0     libucrt:winapi_thunks.obj
 0002:00002e20       ??_C@_1DK@LPPGFMPP@?$AAa?$AAp?$AAi?$AA?9?$AAm?$AAs?$AA?9?$AAw?$AAi?$AAn?$AA?9?$AAc?$AAo?$AAr?$AAe?$AA?9?$AAs?$AAy?$AAn?$AAc?$AAh?$AA?9?$AAl?$AA1?$AA?9?$AA2?$AA?9?$AA0?$AA?$AA@ 000000018001fe20     libucrt:winapi_thunks.obj
 0002:00002e60       ??_C@_1DO@FPAPJEMD@?$AAa?$AAp?$AAi?$AA?9?$AAm?$AAs?$AA?9?$AAw?$AAi?$AAn?$AA?9?$AAc?$AAo?$AAr?$AAe?$AA?9?$AAs?$AAy?$AAs?$AAi?$AAn?$AAf?$AAo?$AA?9?$AAl?$AA1?$AA?9?$AA2?$AA?9?$AA1?$AA?$AA@ 000000018001fe60     libucrt:winapi_thunks.obj
 0002:00002ea0       ??_C@_1DK@NDHNAHIO@?$AAa?$AAp?$AAi?$AA?9?$AAm?$AAs?$AA?9?$AAw?$AAi?$AAn?$AA?9?$AAc?$AAo?$AAr?$AAe?$AA?9?$AAw?$AAi?$AAn?$AAr?$AAt?$AA?9?$AAl?$AA1?$AA?9?$AA1?$AA?9?$AA0?$AA?$AA@ 000000018001fea0     libucrt:winapi_thunks.obj
 0002:00002ee0       ??_C@_1DM@KGHDGBCM@?$AAa?$AAp?$AAi?$AA?9?$AAm?$AAs?$AA?9?$AAw?$AAi?$AAn?$AA?9?$AAc?$AAo?$AAr?$AAe?$AA?9?$AAx?$AAs?$AAt?$AAa?$AAt?$AAe?$AA?9?$AAl?$AA2?$AA?9?$AA1?$AA?9?$AA0?$AA?$AA@ 000000018001fee0     libucrt:winapi_thunks.obj
 0002:00002f20       ??_C@_1EO@IJIOEFOH@?$AAa?$AAp?$AAi?$AA?9?$AAm?$AAs?$AA?9?$AAw?$AAi?$AAn?$AA?9?$AAr?$AAt?$AAc?$AAo?$AAr?$AAe?$AA?9?$AAn?$AAt?$AAu?$AAs?$AAe?$AAr?$AA?9?$AAw?$AAi?$AAn?$AAd?$AAo?$AAw?$AA?9@ 000000018001ff20     libucrt:winapi_thunks.obj
 0002:00002f70       ??_C@_1FG@HHGEKANL@?$AAa?$AAp?$AAi?$AA?9?$AAm?$AAs?$AA?9?$AAw?$AAi?$AAn?$AA?9?$AAs?$AAe?$AAc?$AAu?$AAr?$AAi?$AAt?$AAy?$AA?9?$AAs?$AAy?$AAs?$AAt?$AAe?$AAm?$AAf?$AAu?$AAn?$AAc?$AAt?$AAi@ 000000018001ff70     libucrt:winapi_thunks.obj
 0002:00002fd0       ??_C@_1EG@DBIOJECG@?$AAe?$AAx?$AAt?$AA?9?$AAm?$AAs?$AA?9?$AAw?$AAi?$AAn?$AA?9?$AAn?$AAt?$AAu?$AAs?$AAe?$AAr?$AA?9?$AAd?$AAi?$AAa?$AAl?$AAo?$AAg?$AAb?$AAo?$AAx?$AA?9?$AAl?$AA1?$AA?9?$AA1@ 000000018001ffd0     libucrt:winapi_thunks.obj
 0002:00003020       ??_C@_1EO@FIHMJCLF@?$AAe?$AAx?$AAt?$AA?9?$AAm?$AAs?$AA?9?$AAw?$AAi?$AAn?$AA?9?$AAn?$AAt?$AAu?$AAs?$AAe?$AAr?$AA?9?$AAw?$AAi?$AAn?$AAd?$AAo?$AAw?$AAs?$AAt?$AAa?$AAt?$AAi?$AAo?$AAn?$AA?9@ 0000000180020020     libucrt:winapi_thunks.obj
 0002:00003070       ??_C@_1BC@DNHGCMLG@?$AAa?$AAd?$AAv?$AAa?$AAp?$AAi?$AA3?$AA2?$AA?$AA@ 0000000180020070     libucrt:winapi_thunks.obj
 0002:00003088       ??_C@_1BC@GDMECMAK@?$AAk?$AAe?$AAr?$AAn?$AAe?$AAl?$AA3?$AA2?$AA?$AA@ 0000000180020088     libucrt:winapi_thunks.obj
 0002:000030a0       ??_C@_1M@OAIMIKLP@?$AAn?$AAt?$AAd?$AAl?$AAl?$AA?$AA@ 00000001800200a0     libucrt:winapi_thunks.obj
 0002:000030b0       ??_C@_1EG@DPGNFKGC@?$AAa?$AAp?$AAi?$AA?9?$AAm?$AAs?$AA?9?$AAw?$AAi?$AAn?$AA?9?$AAa?$AAp?$AAp?$AAm?$AAo?$AAd?$AAe?$AAl?$AA?9?$AAr?$AAu?$AAn?$AAt?$AAi?$AAm?$AAe?$AA?9?$AAl?$AA1?$AA?9?$AA1@ 00000001800200b0     libucrt:winapi_thunks.obj
 0002:000030f8       ??_C@_1O@BCCLBEOE@?$AAu?$AAs?$AAe?$AAr?$AA3?$AA2?$AA?$AA@ 00000001800200f8     libucrt:winapi_thunks.obj
 0002:00003108       ??_C@_1BA@PFFKHIOG@?$AAa?$AAp?$AAi?$AA?9?$AAm?$AAs?$AA?9?$AA?$AA@ 0000000180020108     libucrt:winapi_thunks.obj
 0002:00003118       ??_C@_1BA@IAIFMGEF@?$AAe?$AAx?$AAt?$AA?9?$AAm?$AAs?$AA?9?$AA?$AA@ 0000000180020118     libucrt:winapi_thunks.obj
 0002:00003130       ??_C@_08KNHFBNJ@FlsAlloc?$AA@ 0000000180020130     libucrt:winapi_thunks.obj
 0002:00003148       ??_C@_07PEJMOBNF@FlsFree?$AA@ 0000000180020148     libucrt:winapi_thunks.obj
 0002:00003158       ??_C@_0M@GDNOONDI@FlsGetValue?$AA@ 0000000180020158     libucrt:winapi_thunks.obj
 0002:00003170       ??_C@_0M@JCPCPOEF@FlsSetValue?$AA@ 0000000180020170     libucrt:winapi_thunks.obj
 0002:00003188       ??_C@_0BA@HNOPNCHB@GetActiveWindow?$AA@ 0000000180020188     libucrt:winapi_thunks.obj
 0002:000031a0       ??_C@_0BD@HHGDFDBJ@GetLastActivePopup?$AA@ 00000001800201a0     libucrt:winapi_thunks.obj
 0002:000031c0       ??_C@_0BI@DFKBFLJE@GetProcessWindowStation?$AA@ 00000001800201c0     libucrt:winapi_thunks.obj
 0002:000031e0       ??_C@_0BK@DEKFELLI@GetUserObjectInformationW?$AA@ 00000001800201e0     libucrt:winapi_thunks.obj
 0002:00003208       ??_C@_0BM@HCFOFFN@InitializeCriticalSectionEx?$AA@ 0000000180020208     libucrt:winapi_thunks.obj
 0002:00003230       ??_C@_0O@KKBNKAPF@LCMapStringEx?$AA@ 0000000180020230     libucrt:winapi_thunks.obj
 0002:00003248       ??_C@_0BB@HBDEELFH@LocaleNameToLCID?$AA@ 0000000180020248     libucrt:winapi_thunks.obj
 0002:00003268       ??_C@_0M@CHKKJDAI@MessageBoxA?$AA@ 0000000180020268     libucrt:winapi_thunks.obj
 0002:00003280       ??_C@_0M@DLDCCGNP@MessageBoxW?$AA@ 0000000180020280     libucrt:winapi_thunks.obj
 0002:00003290       ??_C@_0CF@OJOFEIGO@AppPolicyGetProcessTerminationMe@ 0000000180020290     libucrt:winapi_thunks.obj
 0002:000032c0       ??_C@_0CE@OICFMIKE@AppPolicyGetShowDeveloperDiagnos@ 00000001800202c0     libucrt:winapi_thunks.obj
 0002:000032e8       ??_C@_0BL@ODDJNEDA@AppPolicyGetWindowingModel?$AA@ 00000001800202e8     libucrt:winapi_thunks.obj
 0002:00003304       ??_C@_15PJPFLCCM@?$AAu?$AAk?$AA?$AA@ 0000000180020304     libucrt:get_qualified_locale.obj
 0002:0000330a       ??_C@_00CNPNBAHC@?$AA@     000000018002030a     libucrt:mbrtowc.obj
 0002:00003310       ?large_power_data@?1??multiply_by_power_of_ten@__crt_strtox@@YA_NAEAUbig_integer@2@I@Z@4QBIB 0000000180020310     libucrt:cfout.obj
 0002:00003c20       ?large_power_indices@?1??multiply_by_power_of_ten@__crt_strtox@@YA_NAEAUbig_integer@2@I@Z@4QBUunpack_index@?1??12@YA_N0I@Z@B 0000000180020c20     libucrt:cfout.obj
 0002:00003cb8       ?small_powers_of_ten@?1??multiply_by_power_of_ten@__crt_strtox@@YA_NAEAUbig_integer@2@I@Z@4QBIB 0000000180020cb8     libucrt:cfout.obj
 0002:00003cdc       ??_C@_01GBGANLPD@0?$AA@    0000000180020cdc     libucrt:cfout.obj
 0002:00003ce0       ??_C@_05DNEBIAHO@1?$CDINF?$AA@ 0000000180020ce0     libucrt:cfout.obj
 0002:00003ce8       ??_C@_06IMKFLFPG@1?$CDQNAN?$AA@ 0000000180020ce8     libucrt:cfout.obj
 0002:00003cf0       ??_C@_06PGGFOGJG@1?$CDSNAN?$AA@ 0000000180020cf0     libucrt:cfout.obj
 0002:00003cf8       ??_C@_05PHHOCPM@1?$CDIND?$AA@ 0000000180020cf8     libucrt:cfout.obj
 0002:00004b40       ??_C@_15EMKDOKLE@?$AAa?$AAr?$AA?$AA@ 0000000180021b40     libucrt:lcidtoname_downlevel.obj
 0002:00004b48       ??_C@_15KNPADPLH@?$AAb?$AAg?$AA?$AA@ 0000000180021b48     libucrt:lcidtoname_downlevel.obj
 0002:00004b50       ??_C@_15EDMHLDMO@?$AAc?$AAa?$AA?$AA@ 0000000180021b50     libucrt:lcidtoname_downlevel.obj
 0002:00004b58       ??_C@_1O@BPEAJADD@?$AAz?$AAh?$AA?9?$AAC?$AAH?$AAS?$AA?$AA@ 0000000180021b58     libucrt:lcidtoname_downlevel.obj
 0002:00004b68       ??_C@_15LJNHCMNK@?$AAc?$AAs?$AA?$AA@ 0000000180021b68     libucrt:lcidtoname_downlevel.obj
 0002:00004b70       ??_C@_15FOMCIDHG@?$AAd?$AAa?$AA?$AA@ 0000000180021b70     libucrt:lcidtoname_downlevel.obj
 0002:00004b78       ??_C@_15NBKABECB@?$AAd?$AAe?$AA?$AA@ 0000000180021b78     libucrt:lcidtoname_downlevel.obj
 0002:00004b80       ??_C@_15GHPEIIAO@?$AAe?$AAl?$AA?$AA@ 0000000180021b80     libucrt:lcidtoname_downlevel.obj
 0002:00004b88       ??_C@_15MNPNEAIF@?$AAe?$AAn?$AA?$AA@ 0000000180021b88     libucrt:lcidtoname_downlevel.obj
 0002:00004b90       ??_C@_15GPIOMPMH@?$AAe?$AAs?$AA?$AA@ 0000000180021b90     libucrt:lcidtoname_downlevel.obj
 0002:00004b98       ??_C@_15NGLOAKJC@?$AAf?$AAi?$AA?$AA@ 0000000180021b98     libucrt:lcidtoname_downlevel.obj
 0002:00004ba0       ??_C@_15FBKGNKAM@?$AAf?$AAr?$AA?$AA@ 0000000180021ba0     libucrt:lcidtoname_downlevel.obj
 0002:00004ba8       ??_C@_15KGGCNEFK@?$AAh?$AAe?$AA?$AA@ 0000000180021ba8     libucrt:lcidtoname_downlevel.obj
 0002:00004bb0       ??_C@_15PGHLIDMF@?$AAh?$AAu?$AA?$AA@ 0000000180021bb0     libucrt:lcidtoname_downlevel.obj
 0002:00004bb8       ??_C@_15BIEMAPLM@?$AAi?$AAs?$AA?$AA@ 0000000180021bb8     libucrt:lcidtoname_downlevel.obj
 0002:00004bc0       ??_C@_15IFJLDHAF@?$AAi?$AAt?$AA?$AA@ 0000000180021bc0     libucrt:lcidtoname_downlevel.obj
 0002:00004bc8       ??_C@_15GEMIOCAG@?$AAj?$AAa?$AA?$AA@ 0000000180021bc8     libucrt:lcidtoname_downlevel.obj
 0002:00004bd0       ??_C@_15EPELEGJA@?$AAk?$AAo?$AA?$AA@ 0000000180021bd0     libucrt:lcidtoname_downlevel.obj
 0002:00004bd8       ??_C@_15NDDHIMN@?$AAn?$AAl?$AA?$AA@ 0000000180021bd8     libucrt:lcidtoname_downlevel.obj
 0002:00004be0       ??_C@_15BPIGNHCD@?$AAn?$AAo?$AA?$AA@ 0000000180021be0     libucrt:lcidtoname_downlevel.obj
 0002:00004be8       ??_C@_15DEOPBLCG@?$AAp?$AAl?$AA?$AA@ 0000000180021be8     libucrt:lcidtoname_downlevel.obj
 0002:00004bf0       ??_C@_15KBECGEFG@?$AAp?$AAt?$AA?$AA@ 0000000180021bf0     libucrt:lcidtoname_downlevel.obj
 0002:00004bf8       ??_C@_15GLJCBFMD@?$AAr?$AAo?$AA?$AA@ 0000000180021bf8     libucrt:lcidtoname_downlevel.obj
 0002:00004c00       ??_C@_15FEDGKCDI@?$AAr?$AAu?$AA?$AA@ 0000000180021c00     libucrt:lcidtoname_downlevel.obj
 0002:00004c08       ??_C@_15GLKMLLHM@?$AAh?$AAr?$AA?$AA@ 0000000180021c08     libucrt:lcidtoname_downlevel.obj
 0002:00004c10       ??_C@_15CPKMFBDB@?$AAs?$AAk?$AA?$AA@ 0000000180021c10     libucrt:lcidtoname_downlevel.obj
 0002:00004c18       ??_C@_15BAAIOGMK@?$AAs?$AAq?$AA?$AA@ 0000000180021c18     libucrt:lcidtoname_downlevel.obj
 0002:00004c20       ??_C@_15INNPNOHD@?$AAs?$AAv?$AA?$AA@ 0000000180021c20     libucrt:lcidtoname_downlevel.obj
 0002:00004c28       ??_C@_15CABMMOGH@?$AAt?$AAh?$AA?$AA@ 0000000180021c28     libucrt:lcidtoname_downlevel.obj
 0002:00004c30       ??_C@_15BPLIHJJM@?$AAt?$AAr?$AA?$AA@ 0000000180021c30     libucrt:lcidtoname_downlevel.obj
 0002:00004c38       ??_C@_15NEOEKKDJ@?$AAu?$AAr?$AA?$AA@ 0000000180021c38     libucrt:lcidtoname_downlevel.obj
 0002:00004c40       ??_C@_15NFICGAJK@?$AAi?$AAd?$AA?$AA@ 0000000180021c40     libucrt:lcidtoname_downlevel.obj
 0002:00004c48       ??_C@_15HPJPHDM@?$AAb?$AAe?$AA?$AA@ 0000000180021c48     libucrt:lcidtoname_downlevel.obj
 0002:00004c50       ??_C@_15LCHLGJII@?$AAs?$AAl?$AA?$AA@ 0000000180021c50     libucrt:lcidtoname_downlevel.obj
 0002:00004c58       ??_C@_15PCFJPHHO@?$AAe?$AAt?$AA?$AA@ 0000000180021c58     libucrt:lcidtoname_downlevel.obj
 0002:00004c60       ??_C@_15HPFPGODN@?$AAl?$AAv?$AA?$AA@ 0000000180021c60     libucrt:lcidtoname_downlevel.obj
 0002:00004c68       ??_C@_15NFFGKGLG@?$AAl?$AAt?$AA?$AA@ 0000000180021c68     libucrt:lcidtoname_downlevel.obj
 0002:00004c70       ??_C@_15BDAKCCHN@?$AAf?$AAa?$AA?$AA@ 0000000180021c70     libucrt:lcidtoname_downlevel.obj
 0002:00004c78       ??_C@_15NFGIAIAJ@?$AAv?$AAi?$AA?$AA@ 0000000180021c78     libucrt:lcidtoname_downlevel.obj
 0002:00004c80       ??_C@_15LMKNDMHN@?$AAh?$AAy?$AA?$AA@ 0000000180021c80     libucrt:lcidtoname_downlevel.obj
 0002:00004c88       ??_C@_15IJBHMCFL@?$AAa?$AAz?$AA?$AA@ 0000000180021c88     libucrt:lcidtoname_downlevel.obj
 0002:00004c90       ??_C@_15EKOFJABL@?$AAe?$AAu?$AA?$AA@ 0000000180021c90     libucrt:lcidtoname_downlevel.obj
 0002:00004c98       ??_C@_15BGHADCNK@?$AAm?$AAk?$AA?$AA@ 0000000180021c98     libucrt:lcidtoname_downlevel.obj
 0002:00004ca0       ??_C@_15JDNICKHM@?$AAa?$AAf?$AA?$AA@ 0000000180021ca0     libucrt:lcidtoname_downlevel.obj
 0002:00004ca8       ??_C@_15KPJEDBKD@?$AAk?$AAa?$AA?$AA@ 0000000180021ca8     libucrt:lcidtoname_downlevel.obj
 0002:00004cb0       ??_C@_15PDNFFFEO@?$AAf?$AAo?$AA?$AA@ 0000000180021cb0     libucrt:lcidtoname_downlevel.obj
 0002:00004cb8       ??_C@_15OMLEGLOC@?$AAh?$AAi?$AA?$AA@ 0000000180021cb8     libucrt:lcidtoname_downlevel.obj
 0002:00004cc0       ??_C@_15IDNNENKK@?$AAm?$AAs?$AA?$AA@ 0000000180021cc0     libucrt:lcidtoname_downlevel.obj
 0002:00004cc8       ??_C@_15MACJNBMH@?$AAk?$AAk?$AA?$AA@ 0000000180021cc8     libucrt:lcidtoname_downlevel.obj
 0002:00004cd0       ??_C@_15DKDJEOND@?$AAk?$AAy?$AA?$AA@ 0000000180021cd0     libucrt:lcidtoname_downlevel.obj
 0002:00004cd8       ??_C@_15DFGDLJBG@?$AAs?$AAw?$AA?$AA@ 0000000180021cd8     libucrt:lcidtoname_downlevel.obj
 0002:00004ce0       ??_C@_15BBFAICNG@?$AAu?$AAz?$AA?$AA@ 0000000180021ce0     libucrt:lcidtoname_downlevel.obj
 0002:00004ce8       ??_C@_15DKNDCGEA@?$AAt?$AAt?$AA?$AA@ 0000000180021ce8     libucrt:lcidtoname_downlevel.obj
 0002:00004cf0       ??_C@_15MGIFMDPL@?$AAp?$AAa?$AA?$AA@ 0000000180021cf0     libucrt:lcidtoname_downlevel.obj
 0002:00004cf8       ??_C@_15HCNDBBA@?$AAg?$AAu?$AA?$AA@ 0000000180021cf8     libucrt:lcidtoname_downlevel.obj
 0002:00004d00       ??_C@_15FNBEIBON@?$AAt?$AAa?$AA?$AA@ 0000000180021d00     libucrt:lcidtoname_downlevel.obj
 0002:00004d08       ??_C@_15NCHGBGLK@?$AAt?$AAe?$AA?$AA@ 0000000180021d08     libucrt:lcidtoname_downlevel.obj
 0002:00004d10       ??_C@_15PHPHCBPF@?$AAk?$AAn?$AA?$AA@ 0000000180021d10     libucrt:lcidtoname_downlevel.obj
 0002:00004d18       ??_C@_15DLGBCKMP@?$AAm?$AAr?$AA?$AA@ 0000000180021d18     libucrt:lcidtoname_downlevel.obj
 0002:00004d20       ??_C@_15EABBLBFF@?$AAs?$AAa?$AA?$AA@ 0000000180021d20     libucrt:lcidtoname_downlevel.obj
 0002:00004d28       ??_C@_15CBKOMCOI@?$AAm?$AAn?$AA?$AA@ 0000000180021d28     libucrt:lcidtoname_downlevel.obj
 0002:00004d30       ??_C@_15CKDMCJAF@?$AAg?$AAl?$AA?$AA@ 0000000180021d30     libucrt:lcidtoname_downlevel.obj
 0002:00004d38       ??_C@_17CNJFBPG@?$AAk?$AAo?$AAk?$AA?$AA@ 0000000180021d38     libucrt:lcidtoname_downlevel.obj
 0002:00004d40       ??_C@_17FFBJICPL@?$AAs?$AAy?$AAr?$AA?$AA@ 0000000180021d40     libucrt:lcidtoname_downlevel.obj
 0002:00004d48       ??_C@_17KPNDCPAF@?$AAd?$AAi?$AAv?$AA?$AA@ 0000000180021d48     libucrt:lcidtoname_downlevel.obj
 0002:00004d50       ??_C@_11LOCGONAA@?$AA?$AA@ 0000000180021d50     libucrt:lcidtoname_downlevel.obj
 0002:00004d58       ??_C@_1M@OKAHONE@?$AAa?$AAr?$AA?9?$AAS?$AAA?$AA?$AA@ 0000000180021d58     libucrt:lcidtoname_downlevel.obj
 0002:00004d68       ??_C@_1M@FFFIGIGK@?$AAb?$AAg?$AA?9?$AAB?$AAG?$AA?$AA@ 0000000180021d68     libucrt:lcidtoname_downlevel.obj
 0002:00004d78       ??_C@_1M@BJNKEDC@?$AAc?$AAa?$AA?9?$AAE?$AAS?$AA?$AA@ 0000000180021d78     libucrt:lcidtoname_downlevel.obj
 0002:00004d88       ??_C@_1M@IJJHFJHA@?$AAc?$AAs?$AA?9?$AAC?$AAZ?$AA?$AA@ 0000000180021d88     libucrt:lcidtoname_downlevel.obj
 0002:00004d98       ??_C@_1M@CLPEOBGI@?$AAd?$AAa?$AA?9?$AAD?$AAK?$AA?$AA@ 0000000180021d98     libucrt:lcidtoname_downlevel.obj
 0002:00004da8       ??_C@_1M@MCMADGCB@?$AAd?$AAe?$AA?9?$AAD?$AAE?$AA?$AA@ 0000000180021da8     libucrt:lcidtoname_downlevel.obj
 0002:00004db8       ??_C@_1M@OOCKEMAM@?$AAe?$AAl?$AA?9?$AAG?$AAR?$AA?$AA@ 0000000180021db8     libucrt:lcidtoname_downlevel.obj
 0002:00004dc8       ??_C@_1M@DDNJFGID@?$AAf?$AAi?$AA?9?$AAF?$AAI?$AA?$AA@ 0000000180021dc8     libucrt:lcidtoname_downlevel.obj
 0002:00004dd8       ??_C@_1M@GLIPPMAC@?$AAf?$AAr?$AA?9?$AAF?$AAR?$AA?$AA@ 0000000180021dd8     libucrt:lcidtoname_downlevel.obj
 0002:00004de8       ??_C@_1M@GFMCHPE@?$AAh?$AAe?$AA?9?$AAI?$AAL?$AA?$AA@ 0000000180021de8     libucrt:lcidtoname_downlevel.obj
 0002:00004df8       ??_C@_1M@MHLPGNKM@?$AAh?$AAu?$AA?9?$AAH?$AAU?$AA?$AA@ 0000000180021df8     libucrt:lcidtoname_downlevel.obj
 0002:00004e08       ??_C@_1M@LPDDNNPN@?$AAi?$AAs?$AA?9?$AAI?$AAS?$AA?$AA@ 0000000180021e08     libucrt:lcidtoname_downlevel.obj
 0002:00004e18       ??_C@_1M@MADIPODN@?$AAi?$AAt?$AA?9?$AAI?$AAT?$AA?$AA@ 0000000180021e18     libucrt:lcidtoname_downlevel.obj
 0002:00004e28       ??_C@_1M@IHBJJGG@?$AAn?$AAl?$AA?9?$AAN?$AAL?$AA?$AA@ 0000000180021e28     libucrt:lcidtoname_downlevel.obj
 0002:00004e38       ??_C@_1M@EANAGDL@?$AAn?$AAb?$AA?9?$AAN?$AAO?$AA?$AA@ 0000000180021e38     libucrt:lcidtoname_downlevel.obj
 0002:00004e48       ??_C@_1M@NEIEMEGP@?$AAp?$AAl?$AA?9?$AAP?$AAL?$AA?$AA@ 0000000180021e48     libucrt:lcidtoname_downlevel.obj
 0002:00004e58       ??_C@_1M@BOCFIGEP@?$AAp?$AAt?$AA?9?$AAB?$AAR?$AA?$AA@ 0000000180021e58     libucrt:lcidtoname_downlevel.obj
 0002:00004e68       ??_C@_1M@IMPFOPBG@?$AAr?$AAo?$AA?9?$AAR?$AAO?$AA?$AA@ 0000000180021e68     libucrt:lcidtoname_downlevel.obj
 0002:00004e78       ??_C@_1M@IDNNEJMM@?$AAr?$AAu?$AA?9?$AAR?$AAU?$AA?$AA@ 0000000180021e78     libucrt:lcidtoname_downlevel.obj
 0002:00004e88       ??_C@_1M@LILEEOGM@?$AAh?$AAr?$AA?9?$AAH?$AAR?$AA?$AA@ 0000000180021e88     libucrt:lcidtoname_downlevel.obj
 0002:00004e98       ??_C@_1M@FKIFEHPB@?$AAs?$AAk?$AA?9?$AAS?$AAK?$AA?$AA@ 0000000180021e98     libucrt:lcidtoname_downlevel.obj
 0002:00004ea8       ??_C@_1M@LJMAMNPJ@?$AAs?$AAq?$AA?9?$AAA?$AAL?$AA?$AA@ 0000000180021ea8     libucrt:lcidtoname_downlevel.obj
 0002:00004eb8       ??_C@_1M@GIAKDKJK@?$AAs?$AAv?$AA?9?$AAS?$AAE?$AA?$AA@ 0000000180021eb8     libucrt:lcidtoname_downlevel.obj
 0002:00004ec8       ??_C@_1M@MKJKIKCL@?$AAt?$AAh?$AA?9?$AAT?$AAH?$AA?$AA@ 0000000180021ec8     libucrt:lcidtoname_downlevel.obj
 0002:00004ed8       ??_C@_1M@MFLCCMPB@?$AAt?$AAr?$AA?9?$AAT?$AAR?$AA?$AA@ 0000000180021ed8     libucrt:lcidtoname_downlevel.obj
 0002:00004ee8       ??_C@_1M@OIJHDKJN@?$AAu?$AAr?$AA?9?$AAP?$AAK?$AA?$AA@ 0000000180021ee8     libucrt:lcidtoname_downlevel.obj
 0002:00004ef8       ??_C@_1M@LHIPCIEK@?$AAi?$AAd?$AA?9?$AAI?$AAD?$AA?$AA@ 0000000180021ef8     libucrt:lcidtoname_downlevel.obj
 0002:00004f08       ??_C@_1M@MFMOBGI@?$AAu?$AAk?$AA?9?$AAU?$AAA?$AA?$AA@ 0000000180021f08     libucrt:lcidtoname_downlevel.obj
 0002:00004f18       ??_C@_1M@OBGLJIPL@?$AAb?$AAe?$AA?9?$AAB?$AAY?$AA?$AA@ 0000000180021f18     libucrt:lcidtoname_downlevel.obj
 0002:00004f28       ??_C@_1M@BCFAJEAD@?$AAs?$AAl?$AA?9?$AAS?$AAI?$AA?$AA@ 0000000180021f28     libucrt:lcidtoname_downlevel.obj
 0002:00004f38       ??_C@_1M@FKFFEDDN@?$AAe?$AAt?$AA?9?$AAE?$AAE?$AA?$AA@ 0000000180021f38     libucrt:lcidtoname_downlevel.obj
 0002:00004f48       ??_C@_1M@KGKKAACI@?$AAl?$AAv?$AA?9?$AAL?$AAV?$AA?$AA@ 0000000180021f48     libucrt:lcidtoname_downlevel.obj
 0002:00004f58       ??_C@_1M@IFGBIJO@?$AAl?$AAt?$AA?9?$AAL?$AAT?$AA?$AA@ 0000000180021f58     libucrt:lcidtoname_downlevel.obj
 0002:00004f68       ??_C@_1M@FGEAHEDM@?$AAf?$AAa?$AA?9?$AAI?$AAR?$AA?$AA@ 0000000180021f68     libucrt:lcidtoname_downlevel.obj
 0002:00004f78       ??_C@_1M@KBMAIBFN@?$AAv?$AAi?$AA?9?$AAV?$AAN?$AA?$AA@ 0000000180021f78     libucrt:lcidtoname_downlevel.obj
 0002:00004f88       ??_C@_1M@GPCBKDJK@?$AAh?$AAy?$AA?9?$AAA?$AAM?$AA?$AA@ 0000000180021f88     libucrt:lcidtoname_downlevel.obj
 0002:00004f98       ??_C@_1BG@BECMDDJB@?$AAa?$AAz?$AA?9?$AAA?$AAZ?$AA?9?$AAL?$AAa?$AAt?$AAn?$AA?$AA@ 0000000180021f98     libucrt:lcidtoname_downlevel.obj
 0002:00004fb0       ??_C@_1M@MAOFCAEA@?$AAe?$AAu?$AA?9?$AAE?$AAS?$AA?$AA@ 0000000180021fb0     libucrt:lcidtoname_downlevel.obj
 0002:00004fc0       ??_C@_1M@IGHABKPI@?$AAm?$AAk?$AA?9?$AAM?$AAK?$AA?$AA@ 0000000180021fc0     libucrt:lcidtoname_downlevel.obj
 0002:00004fd0       ??_C@_1M@IAIGNEJG@?$AAt?$AAn?$AA?9?$AAZ?$AAA?$AA?$AA@ 0000000180021fd0     libucrt:lcidtoname_downlevel.obj
 0002:00004fe0       ??_C@_1M@IIJCOJFA@?$AAx?$AAh?$AA?9?$AAZ?$AAA?$AA?$AA@ 0000000180021fe0     libucrt:lcidtoname_downlevel.obj
 0002:00004ff0       ??_C@_1M@LGPJHNJH@?$AAz?$AAu?$AA?9?$AAZ?$AAA?$AA?$AA@ 0000000180021ff0     libucrt:lcidtoname_downlevel.obj
 0002:00005000       ??_C@_1M@HOKAOIO@?$AAa?$AAf?$AA?9?$AAZ?$AAA?$AA?$AA@ 0000000180022000     libucrt:lcidtoname_downlevel.obj
 0002:00005010       ??_C@_1M@DPCLHLIE@?$AAk?$AAa?$AA?9?$AAG?$AAE?$AA?$AA@ 0000000180022010     libucrt:lcidtoname_downlevel.obj
 0002:00005020       ??_C@_1M@BLKMHJBI@?$AAf?$AAo?$AA?9?$AAF?$AAO?$AA?$AA@ 0000000180022020     libucrt:lcidtoname_downlevel.obj
 0002:00005030       ??_C@_1M@LGGJAPPB@?$AAh?$AAi?$AA?9?$AAI?$AAN?$AA?$AA@ 0000000180022030     libucrt:lcidtoname_downlevel.obj
 0002:00005040       ??_C@_1M@FIKPIHFE@?$AAm?$AAt?$AA?9?$AAM?$AAT?$AA?$AA@ 0000000180022040     libucrt:lcidtoname_downlevel.obj
 0002:00005050       ??_C@_1M@HEGGPBFA@?$AAs?$AAe?$AA?9?$AAN?$AAO?$AA?$AA@ 0000000180022050     libucrt:lcidtoname_downlevel.obj
 0002:00005060       ??_C@_1M@EIBJEEPA@?$AAm?$AAs?$AA?9?$AAM?$AAY?$AA?$AA@ 0000000180022060     libucrt:lcidtoname_downlevel.obj
 0002:00005070       ??_C@_1M@FHLBGMPP@?$AAk?$AAk?$AA?9?$AAK?$AAZ?$AA?$AA@ 0000000180022070     libucrt:lcidtoname_downlevel.obj
 0002:00005080       ??_C@_1M@NGJJLCGI@?$AAk?$AAy?$AA?9?$AAK?$AAG?$AA?$AA@ 0000000180022080     libucrt:lcidtoname_downlevel.obj
 0002:00005090       ??_C@_1M@GIENNBFC@?$AAs?$AAw?$AA?9?$AAK?$AAE?$AA?$AA@ 0000000180022090     libucrt:lcidtoname_downlevel.obj
 0002:000050a0       ??_C@_1BG@NDGMJIMJ@?$AAu?$AAz?$AA?9?$AAU?$AAZ?$AA?9?$AAL?$AAa?$AAt?$AAn?$AA?$AA@ 00000001800220a0     libucrt:lcidtoname_downlevel.obj
 0002:000050b8       ??_C@_1M@IDCCIHBC@?$AAt?$AAt?$AA?9?$AAR?$AAU?$AA?$AA@ 00000001800220b8     libucrt:lcidtoname_downlevel.obj
 0002:000050c8       ??_C@_1M@LOICPMOJ@?$AAb?$AAn?$AA?9?$AAI?$AAN?$AA?$AA@ 00000001800220c8     libucrt:lcidtoname_downlevel.obj
 0002:000050d8       ??_C@_1M@KPKKNEAH@?$AAp?$AAa?$AA?9?$AAI?$AAN?$AA?$AA@ 00000001800220d8     libucrt:lcidtoname_downlevel.obj
 0002:000050e8       ??_C@_1M@PJGPPBOG@?$AAg?$AAu?$AA?9?$AAI?$AAN?$AA?$AA@ 00000001800220e8     libucrt:lcidtoname_downlevel.obj
 0002:000050f8       ??_C@_1M@KMKMOPHI@?$AAt?$AAa?$AA?9?$AAI?$AAN?$AA?$AA@ 00000001800220f8     libucrt:lcidtoname_downlevel.obj
 0002:00005108       ??_C@_1M@KFEHEPAC@?$AAt?$AAe?$AA?9?$AAI?$AAN?$AA?$AA@ 0000000180022108     libucrt:lcidtoname_downlevel.obj
 0002:00005118       ??_C@_1M@CDCLMGHI@?$AAk?$AAn?$AA?9?$AAI?$AAN?$AA?$AA@ 0000000180022118     libucrt:lcidtoname_downlevel.obj
 0002:00005128       ??_C@_1M@MIODLDKF@?$AAm?$AAl?$AA?9?$AAI?$AAN?$AA?$AA@ 0000000180022128     libucrt:lcidtoname_downlevel.obj
 0002:00005138       ??_C@_1M@PBIEACPO@?$AAm?$AAr?$AA?9?$AAI?$AAN?$AA?$AA@ 0000000180022138     libucrt:lcidtoname_downlevel.obj
 0002:00005148       ??_C@_1M@NIDEAGPH@?$AAs?$AAa?$AA?9?$AAI?$AAN?$AA?$AA@ 0000000180022148     libucrt:lcidtoname_downlevel.obj
 0002:00005158       ??_C@_1M@FHIHCBIO@?$AAm?$AAn?$AA?9?$AAM?$AAN?$AA?$AA@ 0000000180022158     libucrt:lcidtoname_downlevel.obj
 0002:00005168       ??_C@_1M@JAIJPENP@?$AAc?$AAy?$AA?9?$AAG?$AAB?$AA?$AA@ 0000000180022168     libucrt:lcidtoname_downlevel.obj
 0002:00005178       ??_C@_1M@PHGFBEPN@?$AAg?$AAl?$AA?9?$AAE?$AAS?$AA?$AA@ 0000000180022178     libucrt:lcidtoname_downlevel.obj
 0002:00005188       ??_C@_1O@KPIPDNCP@?$AAk?$AAo?$AAk?$AA?9?$AAI?$AAN?$AA?$AA@ 0000000180022188     libucrt:lcidtoname_downlevel.obj
 0002:00005198       ??_C@_1O@KNHJLDJA@?$AAs?$AAy?$AAr?$AA?9?$AAS?$AAY?$AA?$AA@ 0000000180022198     libucrt:lcidtoname_downlevel.obj
 0002:000051a8       ??_C@_1O@MKEKBLAH@?$AAd?$AAi?$AAv?$AA?9?$AAM?$AAV?$AA?$AA@ 00000001800221a8     libucrt:lcidtoname_downlevel.obj
 0002:000051b8       ??_C@_1O@OHDCKDDF@?$AAq?$AAu?$AAz?$AA?9?$AAB?$AAO?$AA?$AA@ 00000001800221b8     libucrt:lcidtoname_downlevel.obj
 0002:000051c8       ??_C@_1M@LEPJNLFD@?$AAn?$AAs?$AA?9?$AAZ?$AAA?$AA?$AA@ 00000001800221c8     libucrt:lcidtoname_downlevel.obj
 0002:000051d8       ??_C@_1M@OMLEIIJB@?$AAm?$AAi?$AA?9?$AAN?$AAZ?$AA?$AA@ 00000001800221d8     libucrt:lcidtoname_downlevel.obj
 0002:000051e8       ??_C@_1M@PMPEAILG@?$AAa?$AAr?$AA?9?$AAI?$AAQ?$AA?$AA@ 00000001800221e8     libucrt:lcidtoname_downlevel.obj
 0002:000051f8       ??_C@_1M@CNKPNOEE@?$AAd?$AAe?$AA?9?$AAC?$AAH?$AA?$AA@ 00000001800221f8     libucrt:lcidtoname_downlevel.obj
 0002:00005208       ??_C@_1M@LKMGMLKO@?$AAe?$AAn?$AA?9?$AAG?$AAB?$AA?$AA@ 0000000180022208     libucrt:lcidtoname_downlevel.obj
 0002:00005218       ??_C@_1M@PGKJFFGL@?$AAe?$AAs?$AA?9?$AAM?$AAX?$AA?$AA@ 0000000180022218     libucrt:lcidtoname_downlevel.obj
 0002:00005228       ??_C@_1M@DNNANBDC@?$AAf?$AAr?$AA?9?$AAB?$AAE?$AA?$AA@ 0000000180022228     libucrt:lcidtoname_downlevel.obj
 0002:00005238       ??_C@_1M@HLGMDFHM@?$AAi?$AAt?$AA?9?$AAC?$AAH?$AA?$AA@ 0000000180022238     libucrt:lcidtoname_downlevel.obj
 0002:00005248       ??_C@_1M@CLLBGJH@?$AAn?$AAl?$AA?9?$AAB?$AAE?$AA?$AA@ 0000000180022248     libucrt:lcidtoname_downlevel.obj
 0002:00005258       ??_C@_1M@BODBOGLF@?$AAn?$AAn?$AA?9?$AAN?$AAO?$AA?$AA@ 0000000180022258     libucrt:lcidtoname_downlevel.obj
 0002:00005268       ??_C@_1M@HFFAHKAD@?$AAp?$AAt?$AA?9?$AAP?$AAT?$AA?$AA@ 0000000180022268     libucrt:lcidtoname_downlevel.obj
 0002:00005278       ??_C@_1BG@LNOAKHIE@?$AAs?$AAr?$AA?9?$AAS?$AAP?$AA?9?$AAL?$AAa?$AAt?$AAn?$AA?$AA@ 0000000180022278     libucrt:lcidtoname_downlevel.obj
 0002:00005290       ??_C@_1M@HBMHBGAK@?$AAs?$AAv?$AA?9?$AAF?$AAI?$AA?$AA@ 0000000180022290     libucrt:lcidtoname_downlevel.obj
 0002:000052a0       ??_C@_1BG@DGCJGJBE@?$AAa?$AAz?$AA?9?$AAA?$AAZ?$AA?9?$AAC?$AAy?$AAr?$AAl?$AA?$AA@ 00000001800222a0     libucrt:lcidtoname_downlevel.obj
 0002:000052b8       ??_C@_1M@KEJDAAHB@?$AAs?$AAe?$AA?9?$AAS?$AAE?$AA?$AA@ 00000001800222b8     libucrt:lcidtoname_downlevel.obj
 0002:000052c8       ??_C@_1M@HEIBJJAD@?$AAm?$AAs?$AA?9?$AAB?$AAN?$AA?$AA@ 00000001800222c8     libucrt:lcidtoname_downlevel.obj
 0002:000052d8       ??_C@_1BG@PBGJMCEM@?$AAu?$AAz?$AA?9?$AAU?$AAZ?$AA?9?$AAC?$AAy?$AAr?$AAl?$AA?$AA@ 00000001800222d8     libucrt:lcidtoname_downlevel.obj
 0002:000052f0       ??_C@_1O@LAOBCMDF@?$AAq?$AAu?$AAz?$AA?9?$AAE?$AAC?$AA?$AA@ 00000001800222f0     libucrt:lcidtoname_downlevel.obj
 0002:00005300       ??_C@_1M@POEEMAIO@?$AAa?$AAr?$AA?9?$AAE?$AAG?$AA?$AA@ 0000000180022300     libucrt:lcidtoname_downlevel.obj
 0002:00005310       ??_C@_1M@EFAKDEDL@?$AAz?$AAh?$AA?9?$AAH?$AAK?$AA?$AA@ 0000000180022310     libucrt:lcidtoname_downlevel.obj
 0002:00005320       ??_C@_1M@HKKIJHGI@?$AAd?$AAe?$AA?9?$AAA?$AAT?$AA?$AA@ 0000000180022320     libucrt:lcidtoname_downlevel.obj
 0002:00005330       ??_C@_1M@KBFBEHJF@?$AAe?$AAn?$AA?9?$AAA?$AAU?$AA?$AA@ 0000000180022330     libucrt:lcidtoname_downlevel.obj
 0002:00005340       ??_C@_1M@MNPLFAAH@?$AAe?$AAs?$AA?9?$AAE?$AAS?$AA?$AA@ 0000000180022340     libucrt:lcidtoname_downlevel.obj
 0002:00005350       ??_C@_1M@HJOOJFMA@?$AAf?$AAr?$AA?9?$AAC?$AAA?$AA?$AA@ 0000000180022350     libucrt:lcidtoname_downlevel.obj
 0002:00005360       ??_C@_1BG@JPOFPNAB@?$AAs?$AAr?$AA?9?$AAS?$AAP?$AA?9?$AAC?$AAy?$AAr?$AAl?$AA?$AA@ 0000000180022360     libucrt:lcidtoname_downlevel.obj
 0002:00005378       ??_C@_1M@LNFOCMOB@?$AAs?$AAe?$AA?9?$AAF?$AAI?$AA?$AA@ 0000000180022378     libucrt:lcidtoname_downlevel.obj
 0002:00005388       ??_C@_1O@MGJBOAMB@?$AAq?$AAu?$AAz?$AA?9?$AAP?$AAE?$AA?$AA@ 0000000180022388     libucrt:lcidtoname_downlevel.obj
 0002:00005398       ??_C@_1M@GJINLBOK@?$AAa?$AAr?$AA?9?$AAL?$AAY?$AA?$AA@ 0000000180022398     libucrt:lcidtoname_downlevel.obj
 0002:000053a8       ??_C@_1M@GGMNHJNL@?$AAz?$AAh?$AA?9?$AAS?$AAG?$AA?$AA@ 00000001800223a8     libucrt:lcidtoname_downlevel.obj
 0002:000053b8       ??_C@_1M@HOIKODND@?$AAd?$AAe?$AA?9?$AAL?$AAU?$AA?$AA@ 00000001800223b8     libucrt:lcidtoname_downlevel.obj
 0002:000053c8       ??_C@_1M@DDOCCGFG@?$AAe?$AAn?$AA?9?$AAC?$AAA?$AA?$AA@ 00000001800223c8     libucrt:lcidtoname_downlevel.obj
 0002:000053d8       ??_C@_1M@BNOEMJLF@?$AAe?$AAs?$AA?9?$AAG?$AAT?$AA?$AA@ 00000001800223d8     libucrt:lcidtoname_downlevel.obj
 0002:000053e8       ??_C@_1M@EOGNKEK@?$AAf?$AAr?$AA?9?$AAC?$AAH?$AA?$AA@ 00000001800223e8     libucrt:lcidtoname_downlevel.obj
 0002:000053f8       ??_C@_1M@FLIDJFHL@?$AAh?$AAr?$AA?9?$AAB?$AAA?$AA?$AA@ 00000001800223f8     libucrt:lcidtoname_downlevel.obj
 0002:00005408       ??_C@_1O@FMCELNAJ@?$AAs?$AAm?$AAj?$AA?9?$AAN?$AAO?$AA?$AA@ 0000000180022408     libucrt:lcidtoname_downlevel.obj
 0002:00005418       ??_C@_1M@JHGLJMGJ@?$AAa?$AAr?$AA?9?$AAD?$AAZ?$AA?$AA@ 0000000180022418     libucrt:lcidtoname_downlevel.obj
 0002:00005428       ??_C@_1M@JKKFDCNP@?$AAz?$AAh?$AA?9?$AAM?$AAO?$AA?$AA@ 0000000180022428     libucrt:lcidtoname_downlevel.obj
 0002:00005438       ??_C@_1M@GEEFALPE@?$AAd?$AAe?$AA?9?$AAL?$AAI?$AA?$AA@ 0000000180022438     libucrt:lcidtoname_downlevel.obj
 0002:00005448       ??_C@_1M@IGEOFBG@?$AAe?$AAn?$AA?9?$AAN?$AAZ?$AA?$AA@ 0000000180022448     libucrt:lcidtoname_downlevel.obj
 0002:00005458       ??_C@_1M@KDBONEHP@?$AAe?$AAs?$AA?9?$AAC?$AAR?$AA?$AA@ 0000000180022458     libucrt:lcidtoname_downlevel.obj
 0002:00005468       ??_C@_1M@FHMDOHNN@?$AAf?$AAr?$AA?9?$AAL?$AAU?$AA?$AA@ 0000000180022468     libucrt:lcidtoname_downlevel.obj
 0002:00005478       ??_C@_1BG@NFKKMAFG@?$AAb?$AAs?$AA?9?$AAB?$AAA?$AA?9?$AAL?$AAa?$AAt?$AAn?$AA?$AA@ 0000000180022478     libucrt:lcidtoname_downlevel.obj
 0002:00005490       ??_C@_1O@IMNBEMCI@?$AAs?$AAm?$AAj?$AA?9?$AAS?$AAE?$AA?$AA@ 0000000180022490     libucrt:lcidtoname_downlevel.obj
 0002:000054a0       ??_C@_1M@DHHMBNDP@?$AAa?$AAr?$AA?9?$AAM?$AAA?$AA?$AA@ 00000001800224a0     libucrt:lcidtoname_downlevel.obj
 0002:000054b0       ??_C@_1M@BNBLJCGH@?$AAe?$AAn?$AA?9?$AAI?$AAE?$AA?$AA@ 00000001800224b0     libucrt:lcidtoname_downlevel.obj
 0002:000054c0       ??_C@_1M@GEPAFMDL@?$AAe?$AAs?$AA?9?$AAP?$AAA?$AA?$AA@ 00000001800224c0     libucrt:lcidtoname_downlevel.obj
 0002:000054d0       ??_C@_1M@OJONDMDL@?$AAf?$AAr?$AA?9?$AAM?$AAC?$AA?$AA@ 00000001800224d0     libucrt:lcidtoname_downlevel.obj
 0002:000054e0       ??_C@_1BG@OBCNFJB@?$AAs?$AAr?$AA?9?$AAB?$AAA?$AA?9?$AAL?$AAa?$AAt?$AAn?$AA?$AA@ 00000001800224e0     libucrt:lcidtoname_downlevel.obj
 0002:000054f8       ??_C@_1O@KEMEEGPO@?$AAs?$AAm?$AAa?$AA?9?$AAN?$AAO?$AA?$AA@ 00000001800224f8     libucrt:lcidtoname_downlevel.obj
 0002:00005508       ??_C@_1M@ELMGFODK@?$AAa?$AAr?$AA?9?$AAT?$AAN?$AA?$AA@ 0000000180022508     libucrt:lcidtoname_downlevel.obj
 0002:00005518       ??_C@_1M@BHDLHFAF@?$AAe?$AAn?$AA?9?$AAZ?$AAA?$AA?$AA@ 0000000180022518     libucrt:lcidtoname_downlevel.obj
 0002:00005528       ??_C@_1M@BMGIGLIF@?$AAe?$AAs?$AA?9?$AAD?$AAO?$AA?$AA@ 0000000180022528     libucrt:lcidtoname_downlevel.obj
 0002:00005538       ??_C@_1BG@CMBHIPBE@?$AAs?$AAr?$AA?9?$AAB?$AAA?$AA?9?$AAC?$AAy?$AAr?$AAl?$AA?$AA@ 0000000180022538     libucrt:lcidtoname_downlevel.obj
 0002:00005550       ??_C@_1O@HEDBLHNP@?$AAs?$AAm?$AAa?$AA?9?$AAS?$AAE?$AA?$AA@ 0000000180022550     libucrt:lcidtoname_downlevel.obj
 0002:00005560       ??_C@_1M@DAGCADIM@?$AAa?$AAr?$AA?9?$AAO?$AAM?$AA?$AA@ 0000000180022560     libucrt:lcidtoname_downlevel.obj
 0002:00005570       ??_C@_1M@FODLMICG@?$AAe?$AAn?$AA?9?$AAJ?$AAM?$AA?$AA@ 0000000180022570     libucrt:lcidtoname_downlevel.obj
 0002:00005580       ??_C@_1M@DNMLCIHB@?$AAe?$AAs?$AA?9?$AAV?$AAE?$AA?$AA@ 0000000180022580     libucrt:lcidtoname_downlevel.obj
 0002:00005590       ??_C@_1O@EOKHMKJK@?$AAs?$AAm?$AAs?$AA?9?$AAF?$AAI?$AA?$AA@ 0000000180022590     libucrt:lcidtoname_downlevel.obj
 0002:000055a0       ??_C@_1M@CAFJMKOF@?$AAa?$AAr?$AA?9?$AAY?$AAE?$AA?$AA@ 00000001800225a0     libucrt:lcidtoname_downlevel.obj
 0002:000055b0       ??_C@_1M@CBFHIJLI@?$AAe?$AAn?$AA?9?$AAC?$AAB?$AA?$AA@ 00000001800225b0     libucrt:lcidtoname_downlevel.obj
 0002:000055c0       ??_C@_1M@BGNFLDN@?$AAe?$AAs?$AA?9?$AAC?$AAO?$AA?$AA@ 00000001800225c0     libucrt:lcidtoname_downlevel.obj
 0002:000055d0       ??_C@_1O@JMPHMAMC@?$AAs?$AAm?$AAn?$AA?9?$AAF?$AAI?$AA?$AA@ 00000001800225d0     libucrt:lcidtoname_downlevel.obj
 0002:000055e0       ??_C@_1M@JLANABKE@?$AAa?$AAr?$AA?9?$AAS?$AAY?$AA?$AA@ 00000001800225e0     libucrt:lcidtoname_downlevel.obj
 0002:000055f0       ??_C@_1M@HPKGCFGN@?$AAe?$AAn?$AA?9?$AAB?$AAZ?$AA?$AA@ 00000001800225f0     libucrt:lcidtoname_downlevel.obj
 0002:00005600       ??_C@_1M@OLJCMLGM@?$AAe?$AAs?$AA?9?$AAP?$AAE?$AA?$AA@ 0000000180022600     libucrt:lcidtoname_downlevel.obj
 0002:00005610       ??_C@_1M@MKKGFKLE@?$AAa?$AAr?$AA?9?$AAJ?$AAO?$AA?$AA@ 0000000180022610     libucrt:lcidtoname_downlevel.obj
 0002:00005620       ??_C@_1M@EKPGLDNI@?$AAe?$AAn?$AA?9?$AAT?$AAT?$AA?$AA@ 0000000180022620     libucrt:lcidtoname_downlevel.obj
 0002:00005630       ??_C@_1M@OONGHFHE@?$AAe?$AAs?$AA?9?$AAA?$AAR?$AA?$AA@ 0000000180022630     libucrt:lcidtoname_downlevel.obj
 0002:00005640       ??_C@_1M@OOJFGBHE@?$AAa?$AAr?$AA?9?$AAL?$AAB?$AA?$AA@ 0000000180022640     libucrt:lcidtoname_downlevel.obj
 0002:00005650       ??_C@_1M@GCEJHNEG@?$AAe?$AAn?$AA?9?$AAZ?$AAW?$AA?$AA@ 0000000180022650     libucrt:lcidtoname_downlevel.obj
 0002:00005660       ??_C@_1M@JNOCAHJI@?$AAe?$AAs?$AA?9?$AAE?$AAC?$AA?$AA@ 0000000180022660     libucrt:lcidtoname_downlevel.obj
 0002:00005670       ??_C@_1M@JEFHPGGB@?$AAa?$AAr?$AA?9?$AAK?$AAW?$AA?$AA@ 0000000180022670     libucrt:lcidtoname_downlevel.obj
 0002:00005680       ??_C@_1M@MLKIBJOJ@?$AAe?$AAn?$AA?9?$AAP?$AAH?$AA?$AA@ 0000000180022680     libucrt:lcidtoname_downlevel.obj
 0002:00005690       ??_C@_1M@BDNIPEND@?$AAe?$AAs?$AA?9?$AAC?$AAL?$AA?$AA@ 0000000180022690     libucrt:lcidtoname_downlevel.obj
 0002:000056a0       ??_C@_1M@MPNMEKBD@?$AAa?$AAr?$AA?9?$AAA?$AAE?$AA?$AA@ 00000001800226a0     libucrt:lcidtoname_downlevel.obj
 0002:000056b0       ??_C@_1M@KBJALCPI@?$AAe?$AAs?$AA?9?$AAU?$AAY?$AA?$AA@ 00000001800226b0     libucrt:lcidtoname_downlevel.obj
 0002:000056c0       ??_C@_1M@LLCCOAGA@?$AAa?$AAr?$AA?9?$AAB?$AAH?$AA?$AA@ 00000001800226c0     libucrt:lcidtoname_downlevel.obj
 0002:000056d0       ??_C@_1M@PBFNCDEL@?$AAe?$AAs?$AA?9?$AAP?$AAY?$AA?$AA@ 00000001800226d0     libucrt:lcidtoname_downlevel.obj
 0002:000056e0       ??_C@_1M@EDGINPNP@?$AAa?$AAr?$AA?9?$AAQ?$AAA?$AA?$AA@ 00000001800226e0     libucrt:lcidtoname_downlevel.obj
 0002:000056f0       ??_C@_1M@MKDBIIJI@?$AAe?$AAs?$AA?9?$AAB?$AAO?$AA?$AA@ 00000001800226f0     libucrt:lcidtoname_downlevel.obj
 0002:00005700       ??_C@_1M@CPKKEBLD@?$AAe?$AAs?$AA?9?$AAS?$AAV?$AA?$AA@ 0000000180022700     libucrt:lcidtoname_downlevel.obj
 0002:00005710       ??_C@_1M@NDBGMMJL@?$AAe?$AAs?$AA?9?$AAH?$AAN?$AA?$AA@ 0000000180022710     libucrt:lcidtoname_downlevel.obj
 0002:00005720       ??_C@_1M@JIJIBHDP@?$AAe?$AAs?$AA?9?$AAN?$AAI?$AA?$AA@ 0000000180022720     libucrt:lcidtoname_downlevel.obj
 0002:00005730       ??_C@_1M@CGFMKEEK@?$AAe?$AAs?$AA?9?$AAP?$AAR?$AA?$AA@ 0000000180022730     libucrt:lcidtoname_downlevel.obj
 0002:00005740       ??_C@_1O@ICJHKIIK@?$AAz?$AAh?$AA?9?$AAC?$AAH?$AAT?$AA?$AA@ 0000000180022740     libucrt:lcidtoname_downlevel.obj
 0002:00005750       ??_C@_15CLNEJCE@?$AAs?$AAr?$AA?$AA@ 0000000180022750     libucrt:lcidtoname_downlevel.obj
 0002:000065a0       ??_C@_1M@KAHEKEIG@?$AAa?$AAf?$AA?9?$AAz?$AAa?$AA?$AA@ 00000001800235a0     libucrt:lcidtoname_downlevel.obj
 0002:000065b0       ??_C@_1M@GIECOABL@?$AAa?$AAr?$AA?9?$AAa?$AAe?$AA?$AA@ 00000001800235b0     libucrt:lcidtoname_downlevel.obj
 0002:000065c0       ??_C@_1M@BMLMEKGI@?$AAa?$AAr?$AA?9?$AAb?$AAh?$AA?$AA@ 00000001800235c0     libucrt:lcidtoname_downlevel.obj
 0002:000065d0       ??_C@_1M@DAPFDGGB@?$AAa?$AAr?$AA?9?$AAd?$AAz?$AA?$AA@ 00000001800235d0     libucrt:lcidtoname_downlevel.obj
 0002:000065e0       ??_C@_1M@FJNKGKIG@?$AAa?$AAr?$AA?9?$AAe?$AAg?$AA?$AA@ 00000001800235e0     libucrt:lcidtoname_downlevel.obj
 0002:000065f0       ??_C@_1M@FLGKKCLO@?$AAa?$AAr?$AA?9?$AAi?$AAq?$AA?$AA@ 00000001800235f0     libucrt:lcidtoname_downlevel.obj
 0002:00006600       ??_C@_1M@GNDIPALM@?$AAa?$AAr?$AA?9?$AAj?$AAo?$AA?$AA@ 0000000180023600     libucrt:lcidtoname_downlevel.obj
 0002:00006610       ??_C@_1M@DDMJFMGJ@?$AAa?$AAr?$AA?9?$AAk?$AAw?$AA?$AA@ 0000000180023610     libucrt:lcidtoname_downlevel.obj
 0002:00006620       ??_C@_1M@EJALMLHM@?$AAa?$AAr?$AA?9?$AAl?$AAb?$AA?$AA@ 0000000180023620     libucrt:lcidtoname_downlevel.obj
 0002:00006630       ??_C@_1M@MOBDBLOC@?$AAa?$AAr?$AA?9?$AAl?$AAy?$AA?$AA@ 0000000180023630     libucrt:lcidtoname_downlevel.obj
 0002:00006640       ??_C@_1M@JAOCLHDH@?$AAa?$AAr?$AA?9?$AAm?$AAa?$AA?$AA@ 0000000180023640     libucrt:lcidtoname_downlevel.obj
 0002:00006650       ??_C@_1M@JHPMKJIE@?$AAa?$AAr?$AA?9?$AAo?$AAm?$AA?$AA@ 0000000180023650     libucrt:lcidtoname_downlevel.obj
 0002:00006660       ??_C@_1M@OEPGHFNH@?$AAa?$AAr?$AA?9?$AAq?$AAa?$AA?$AA@ 0000000180023660     libucrt:lcidtoname_downlevel.obj
 0002:00006670       ??_C@_1M@KJDONENM@?$AAa?$AAr?$AA?9?$AAs?$AAa?$AA?$AA@ 0000000180023670     libucrt:lcidtoname_downlevel.obj
 0002:00006680       ??_C@_1M@DMJDKLKM@?$AAa?$AAr?$AA?9?$AAs?$AAy?$AA?$AA@ 0000000180023680     libucrt:lcidtoname_downlevel.obj
 0002:00006690       ??_C@_1M@OMFIPEDC@?$AAa?$AAr?$AA?9?$AAt?$AAn?$AA?$AA@ 0000000180023690     libucrt:lcidtoname_downlevel.obj
 0002:000066a0       ??_C@_1M@IHMHGAON@?$AAa?$AAr?$AA?9?$AAy?$AAe?$AA?$AA@ 00000001800236a0     libucrt:lcidtoname_downlevel.obj
 0002:000066b0       ??_C@_1BG@KDCPGJGB@?$AAa?$AAz?$AA?9?$AAa?$AAz?$AA?9?$AAc?$AAy?$AAr?$AAl?$AA?$AA@ 00000001800236b0     libucrt:lcidtoname_downlevel.obj
 0002:000066c8       ??_C@_1BG@IBCKDDOE@?$AAa?$AAz?$AA?9?$AAa?$AAz?$AA?9?$AAl?$AAa?$AAt?$AAn?$AA?$AA@ 00000001800236c8     libucrt:lcidtoname_downlevel.obj
 0002:000066e0       ??_C@_1M@EGPFDCPD@?$AAb?$AAe?$AA?9?$AAb?$AAy?$AA?$AA@ 00000001800236e0     libucrt:lcidtoname_downlevel.obj
 0002:000066f0       ??_C@_1M@PCMGMCGC@?$AAb?$AAg?$AA?9?$AAb?$AAg?$AA?$AA@ 00000001800236f0     libucrt:lcidtoname_downlevel.obj
 0002:00006700       ??_C@_1M@BJBMFGOB@?$AAb?$AAn?$AA?9?$AAi?$AAn?$AA?$AA@ 0000000180023700     libucrt:lcidtoname_downlevel.obj
 0002:00006710       ??_C@_1BG@EAKMMACD@?$AAb?$AAs?$AA?9?$AAb?$AAa?$AA?9?$AAl?$AAa?$AAt?$AAn?$AA?$AA@ 0000000180023710     libucrt:lcidtoname_downlevel.obj
 0002:00006728       ??_C@_1M@KGADAODK@?$AAc?$AAa?$AA?9?$AAe?$AAs?$AA?$AA@ 0000000180023728     libucrt:lcidtoname_downlevel.obj
 0002:00006738       ??_C@_1M@COAJPDHI@?$AAc?$AAs?$AA?9?$AAc?$AAz?$AA?$AA@ 0000000180023738     libucrt:lcidtoname_downlevel.obj
 0002:00006748       ??_C@_1M@DHBHFONH@?$AAc?$AAy?$AA?9?$AAg?$AAb?$AA?$AA@ 0000000180023748     libucrt:lcidtoname_downlevel.obj
 0002:00006758       ??_C@_1M@IMGKELGA@?$AAd?$AAa?$AA?9?$AAd?$AAk?$AA?$AA@ 0000000180023758     libucrt:lcidtoname_downlevel.obj
 0002:00006768       ??_C@_1M@NNDGDNGA@?$AAd?$AAe?$AA?9?$AAa?$AAt?$AA?$AA@ 0000000180023768     libucrt:lcidtoname_downlevel.obj
 0002:00006778       ??_C@_1M@IKDBHEEM@?$AAd?$AAe?$AA?9?$AAc?$AAh?$AA?$AA@ 0000000180023778     libucrt:lcidtoname_downlevel.obj
 0002:00006788       ??_C@_1M@GFFOJMCJ@?$AAd?$AAe?$AA?9?$AAd?$AAe?$AA?$AA@ 0000000180023788     libucrt:lcidtoname_downlevel.obj
 0002:00006798       ??_C@_1M@MDNLKBPM@?$AAd?$AAe?$AA?9?$AAl?$AAi?$AA?$AA@ 0000000180023798     libucrt:lcidtoname_downlevel.obj
 0002:000067a8       ??_C@_1M@NJBEEJNL@?$AAd?$AAe?$AA?9?$AAl?$AAu?$AA?$AA@ 00000001800237a8     libucrt:lcidtoname_downlevel.obj
 0002:000067b8       ??_C@_1O@GNNELBAP@?$AAd?$AAi?$AAv?$AA?9?$AAm?$AAv?$AA?$AA@ 00000001800237b8     libucrt:lcidtoname_downlevel.obj
 0002:000067c8       ??_C@_1M@EJLEOGAE@?$AAe?$AAl?$AA?9?$AAg?$AAr?$AA?$AA@ 00000001800237c8     libucrt:lcidtoname_downlevel.obj
 0002:000067d8       ??_C@_1M@GMPONJN@?$AAe?$AAn?$AA?9?$AAa?$AAu?$AA?$AA@ 00000001800237d8     libucrt:lcidtoname_downlevel.obj
 0002:000067e8       ??_C@_1M@NIDIIPGF@?$AAe?$AAn?$AA?9?$AAb?$AAz?$AA?$AA@ 00000001800237e8     libucrt:lcidtoname_downlevel.obj
 0002:000067f8       ??_C@_1M@JEHMIMFO@?$AAe?$AAn?$AA?9?$AAc?$AAa?$AA?$AA@ 00000001800237f8     libucrt:lcidtoname_downlevel.obj
 0002:00006808       ??_C@_1M@IGMJCDLA@?$AAe?$AAn?$AA?9?$AAc?$AAb?$AA?$AA@ 0000000180023808     libucrt:lcidtoname_downlevel.obj
 0002:00006818       ??_C@_1M@BNFIGBKG@?$AAe?$AAn?$AA?9?$AAg?$AAb?$AA?$AA@ 0000000180023818     libucrt:lcidtoname_downlevel.obj
 0002:00006828       ??_C@_1M@LKIFDIGP@?$AAe?$AAn?$AA?9?$AAi?$AAe?$AA?$AA@ 0000000180023828     libucrt:lcidtoname_downlevel.obj
 0002:00006838       ??_C@_1M@PJKFGCCO@?$AAe?$AAn?$AA?9?$AAj?$AAm?$AA?$AA@ 0000000180023838     libucrt:lcidtoname_downlevel.obj
 0002:00006848       ??_C@_1M@KPPKEPBO@?$AAe?$AAn?$AA?9?$AAn?$AAz?$AA?$AA@ 0000000180023848     libucrt:lcidtoname_downlevel.obj
 0002:00006858       ??_C@_1M@GMDGLDOB@?$AAe?$AAn?$AA?9?$AAp?$AAh?$AA?$AA@ 0000000180023858     libucrt:lcidtoname_downlevel.obj
 0002:00006868       ??_C@_1M@ONGIBJNA@?$AAe?$AAn?$AA?9?$AAt?$AAt?$AA?$AA@ 0000000180023868     libucrt:lcidtoname_downlevel.obj
 0002:00006878       ??_C@_1M@LLODPCMM@?$AAe?$AAn?$AA?9?$AAu?$AAs?$AA?$AA@ 0000000180023878     libucrt:lcidtoname_downlevel.obj
 0002:00006888       ??_C@_1M@LAKFNPAN@?$AAe?$AAn?$AA?9?$AAz?$AAa?$AA?$AA@ 0000000180023888     libucrt:lcidtoname_downlevel.obj
 0002:00006898       ??_C@_1M@MFNHNHEO@?$AAe?$AAn?$AA?9?$AAz?$AAw?$AA?$AA@ 0000000180023898     libucrt:lcidtoname_downlevel.obj
 0002:000068a8       ??_C@_1M@EJEINPHM@?$AAe?$AAs?$AA?9?$AAa?$AAr?$AA?$AA@ 00000001800238a8     libucrt:lcidtoname_downlevel.obj
 0002:000068b8       ??_C@_1M@GNKPCCJA@?$AAe?$AAs?$AA?9?$AAb?$AAo?$AA?$AA@ 00000001800238b8     libucrt:lcidtoname_downlevel.obj
 0002:000068c8       ??_C@_1M@LEEGFONL@?$AAe?$AAs?$AA?9?$AAc?$AAl?$AA?$AA@ 00000001800238c8     libucrt:lcidtoname_downlevel.obj
 0002:000068d8       ??_C@_1M@KGPDPBDF@?$AAe?$AAs?$AA?9?$AAc?$AAo?$AA?$AA@ 00000001800238d8     libucrt:lcidtoname_downlevel.obj
 0002:000068e8       ??_C@_1M@EIAHOHH@?$AAe?$AAs?$AA?9?$AAc?$AAr?$AA?$AA@ 00000001800238e8     libucrt:lcidtoname_downlevel.obj
 0002:000068f8       ??_C@_1M@LLPGMBIN@?$AAe?$AAs?$AA?9?$AAd?$AAo?$AA?$AA@ 00000001800238f8     libucrt:lcidtoname_downlevel.obj
 0002:00006908       ??_C@_1M@DKHMKNJA@?$AAe?$AAs?$AA?9?$AAe?$AAc?$AA?$AA@ 0000000180023908     libucrt:lcidtoname_downlevel.obj
 0002:00006918       ??_C@_1M@GKGFPKAP@?$AAe?$AAs?$AA?9?$AAe?$AAs?$AA?$AA@ 0000000180023918     libucrt:lcidtoname_downlevel.obj
 0002:00006928       ??_C@_1M@LKHKGDLN@?$AAe?$AAs?$AA?9?$AAg?$AAt?$AA?$AA@ 0000000180023928     libucrt:lcidtoname_downlevel.obj
 0002:00006938       ??_C@_1M@HEIIGGJD@?$AAe?$AAs?$AA?9?$AAh?$AAn?$AA?$AA@ 0000000180023938     libucrt:lcidtoname_downlevel.obj
 0002:00006948       ??_C@_1M@FBDHPPGD@?$AAe?$AAs?$AA?9?$AAm?$AAx?$AA?$AA@ 0000000180023948     libucrt:lcidtoname_downlevel.obj
 0002:00006958       ??_C@_1M@DPAGLNDH@?$AAe?$AAs?$AA?9?$AAn?$AAi?$AA?$AA@ 0000000180023958     libucrt:lcidtoname_downlevel.obj
 0002:00006968       ??_C@_1M@MDGOPGDD@?$AAe?$AAs?$AA?9?$AAp?$AAa?$AA?$AA@ 0000000180023968     libucrt:lcidtoname_downlevel.obj
 0002:00006978       ??_C@_1M@EMAMGBGE@?$AAe?$AAs?$AA?9?$AAp?$AAe?$AA?$AA@ 0000000180023978     libucrt:lcidtoname_downlevel.obj
 0002:00006988       ??_C@_1M@IBMCAOEC@?$AAe?$AAs?$AA?9?$AAp?$AAr?$AA?$AA@ 0000000180023988     libucrt:lcidtoname_downlevel.obj
 0002:00006998       ??_C@_1M@FGMDIJED@?$AAe?$AAs?$AA?9?$AAp?$AAy?$AA?$AA@ 0000000180023998     libucrt:lcidtoname_downlevel.obj
 0002:000069a8       ??_C@_1M@IIDEOLLL@?$AAe?$AAs?$AA?9?$AAs?$AAv?$AA?$AA@ 00000001800239a8     libucrt:lcidtoname_downlevel.obj
 0002:000069b8       ??_C@_1M@GAOBIPA@?$AAe?$AAs?$AA?9?$AAu?$AAy?$AA?$AA@ 00000001800239b8     libucrt:lcidtoname_downlevel.obj
 0002:000069c8       ??_C@_1M@JKFFICHJ@?$AAe?$AAs?$AA?9?$AAv?$AAe?$AA?$AA@ 00000001800239c8     libucrt:lcidtoname_downlevel.obj
 0002:000069d8       ??_C@_1M@PNMLOJDF@?$AAe?$AAt?$AA?9?$AAe?$AAe?$AA?$AA@ 00000001800239d8     libucrt:lcidtoname_downlevel.obj
 0002:000069e8       ??_C@_1M@GHHLIKEI@?$AAe?$AAu?$AA?9?$AAe?$AAs?$AA?$AA@ 00000001800239e8     libucrt:lcidtoname_downlevel.obj
 0002:000069f8       ??_C@_1M@PBNONODE@?$AAf?$AAa?$AA?9?$AAi?$AAr?$AA?$AA@ 00000001800239f8     libucrt:lcidtoname_downlevel.obj
 0002:00006a08       ??_C@_1M@JEEHPMIL@?$AAf?$AAi?$AA?9?$AAf?$AAi?$AA?$AA@ 0000000180023a08     libucrt:lcidtoname_downlevel.obj
 0002:00006a18       ??_C@_1M@LMDCNDBA@?$AAf?$AAo?$AA?9?$AAf?$AAo?$AA?$AA@ 0000000180023a18     libucrt:lcidtoname_downlevel.obj
 0002:00006a28       ??_C@_1M@JKEOHLDK@?$AAf?$AAr?$AA?9?$AAb?$AAe?$AA?$AA@ 0000000180023a28     libucrt:lcidtoname_downlevel.obj
 0002:00006a38       ??_C@_1M@NOHADPMI@?$AAf?$AAr?$AA?9?$AAc?$AAa?$AA?$AA@ 0000000180023a38     libucrt:lcidtoname_downlevel.obj
 0002:00006a48       ??_C@_1M@KDHIHAEC@?$AAf?$AAr?$AA?9?$AAc?$AAh?$AA?$AA@ 0000000180023a48     libucrt:lcidtoname_downlevel.obj
 0002:00006a58       ??_C@_1M@MMBBFGAK@?$AAf?$AAr?$AA?9?$AAf?$AAr?$AA?$AA@ 0000000180023a58     libucrt:lcidtoname_downlevel.obj
 0002:00006a68       ??_C@_1M@PAFNENNF@?$AAf?$AAr?$AA?9?$AAl?$AAu?$AA?$AA@ 0000000180023a68     libucrt:lcidtoname_downlevel.obj
 0002:00006a78       ??_C@_1M@EOHDJGDD@?$AAf?$AAr?$AA?9?$AAm?$AAc?$AA?$AA@ 0000000180023a78     libucrt:lcidtoname_downlevel.obj
 0002:00006a88       ??_C@_1M@FAPLLOPF@?$AAg?$AAl?$AA?9?$AAe?$AAs?$AA?$AA@ 0000000180023a88     libucrt:lcidtoname_downlevel.obj
 0002:00006a98       ??_C@_1M@FOPBFLOO@?$AAg?$AAu?$AA?9?$AAi?$AAn?$AA?$AA@ 0000000180023a98     libucrt:lcidtoname_downlevel.obj
 0002:00006aa8       ??_C@_1M@KBMCINPM@?$AAh?$AAe?$AA?9?$AAi?$AAl?$AA?$AA@ 0000000180023aa8     libucrt:lcidtoname_downlevel.obj
 0002:00006ab8       ??_C@_1M@BBPHKFPJ@?$AAh?$AAi?$AA?9?$AAi?$AAn?$AA?$AA@ 0000000180023ab8     libucrt:lcidtoname_downlevel.obj
 0002:00006ac8       ??_C@_1M@PMBNDPHD@?$AAh?$AAr?$AA?9?$AAb?$AAa?$AA?$AA@ 0000000180023ac8     libucrt:lcidtoname_downlevel.obj
 0002:00006ad8       ??_C@_1M@BPCKOEGE@?$AAh?$AAr?$AA?9?$AAh?$AAr?$AA?$AA@ 0000000180023ad8     libucrt:lcidtoname_downlevel.obj
 0002:00006ae8       ??_C@_1M@GACBMHKE@?$AAh?$AAu?$AA?9?$AAh?$AAu?$AA?$AA@ 0000000180023ae8     libucrt:lcidtoname_downlevel.obj
 0002:00006af8       ??_C@_1M@MILPAJJC@?$AAh?$AAy?$AA?9?$AAa?$AAm?$AA?$AA@ 0000000180023af8     libucrt:lcidtoname_downlevel.obj
 0002:00006b08       ??_C@_1M@BABBICEC@?$AAi?$AAd?$AA?9?$AAi?$AAd?$AA?$AA@ 0000000180023b08     libucrt:lcidtoname_downlevel.obj
 0002:00006b18       ??_C@_1M@BIKNHHPF@?$AAi?$AAs?$AA?9?$AAi?$AAs?$AA?$AA@ 0000000180023b18     libucrt:lcidtoname_downlevel.obj
 0002:00006b28       ??_C@_1M@NMPCJPHE@?$AAi?$AAt?$AA?9?$AAc?$AAh?$AA?$AA@ 0000000180023b28     libucrt:lcidtoname_downlevel.obj
 0002:00006b38       ??_C@_1M@GHKGFEDF@?$AAi?$AAt?$AA?9?$AAi?$AAt?$AA?$AA@ 0000000180023b38     libucrt:lcidtoname_downlevel.obj
 0002:00006b48       ??_C@_1M@NIEJCJJA@?$AAj?$AAa?$AA?9?$AAj?$AAp?$AA?$AA@ 0000000180023b48     libucrt:lcidtoname_downlevel.obj
 0002:00006b58       ??_C@_1M@JILFNBIM@?$AAk?$AAa?$AA?9?$AAg?$AAe?$AA?$AA@ 0000000180023b58     libucrt:lcidtoname_downlevel.obj
 0002:00006b68       ??_C@_1M@PACPMGPH@?$AAk?$AAk?$AA?9?$AAk?$AAz?$AA?$AA@ 0000000180023b68     libucrt:lcidtoname_downlevel.obj
 0002:00006b78       ??_C@_1M@IELFGMHA@?$AAk?$AAn?$AA?9?$AAi?$AAn?$AA?$AA@ 0000000180023b78     libucrt:lcidtoname_downlevel.obj
 0002:00006b88       ??_C@_1O@IBBJHCH@?$AAk?$AAo?$AAk?$AA?9?$AAi?$AAn?$AA?$AA@ 0000000180023b88     libucrt:lcidtoname_downlevel.obj
 0002:00006b98       ??_C@_1M@DMHAEOGC@?$AAk?$AAo?$AA?9?$AAk?$AAr?$AA?$AA@ 0000000180023b98     libucrt:lcidtoname_downlevel.obj
 0002:00006ba8       ??_C@_1M@HBAHBIGA@?$AAk?$AAy?$AA?9?$AAk?$AAg?$AA?$AA@ 0000000180023ba8     libucrt:lcidtoname_downlevel.obj
 0002:00006bb8       ??_C@_1M@KPMILCJG@?$AAl?$AAt?$AA?9?$AAl?$AAt?$AA?$AA@ 0000000180023bb8     libucrt:lcidtoname_downlevel.obj
 0002:00006bc8       ??_C@_1M@BDEKKCA@?$AAl?$AAv?$AA?9?$AAl?$AAv?$AA?$AA@ 0000000180023bc8     libucrt:lcidtoname_downlevel.obj
 0002:00006bd8       ??_C@_1M@ELCKCCJJ@?$AAm?$AAi?$AA?9?$AAn?$AAz?$AA?$AA@ 0000000180023bd8     libucrt:lcidtoname_downlevel.obj
 0002:00006be8       ??_C@_1M@CBOOLAPA@?$AAm?$AAk?$AA?9?$AAm?$AAk?$AA?$AA@ 0000000180023be8     libucrt:lcidtoname_downlevel.obj
 0002:00006bf8       ??_C@_1M@GPHNBJKN@?$AAm?$AAl?$AA?9?$AAi?$AAn?$AA?$AA@ 0000000180023bf8     libucrt:lcidtoname_downlevel.obj
 0002:00006c08       ??_C@_1M@PABJILIG@?$AAm?$AAn?$AA?9?$AAm?$AAn?$AA?$AA@ 0000000180023c08     libucrt:lcidtoname_downlevel.obj
 0002:00006c18       ??_C@_1M@FGBKKIPG@?$AAm?$AAr?$AA?9?$AAi?$AAn?$AA?$AA@ 0000000180023c18     libucrt:lcidtoname_downlevel.obj
 0002:00006c28       ??_C@_1M@NDBPDDAL@?$AAm?$AAs?$AA?9?$AAb?$AAn?$AA?$AA@ 0000000180023c28     libucrt:lcidtoname_downlevel.obj
 0002:00006c38       ??_C@_1M@OPIHOOPI@?$AAm?$AAs?$AA?9?$AAm?$AAy?$AA?$AA@ 0000000180023c38     libucrt:lcidtoname_downlevel.obj
 0002:00006c48       ??_C@_1M@PPDBCNFM@?$AAm?$AAt?$AA?9?$AAm?$AAt?$AA?$AA@ 0000000180023c48     libucrt:lcidtoname_downlevel.obj
 0002:00006c58       ??_C@_1M@KDJDKMDD@?$AAn?$AAb?$AA?9?$AAn?$AAo?$AA?$AA@ 0000000180023c58     libucrt:lcidtoname_downlevel.obj
 0002:00006c68       ??_C@_1M@KFCFLMJP@?$AAn?$AAl?$AA?9?$AAb?$AAe?$AA?$AA@ 0000000180023c68     libucrt:lcidtoname_downlevel.obj
 0002:00006c78       ??_C@_1M@KPOPDDGO@?$AAn?$AAl?$AA?9?$AAn?$AAl?$AA?$AA@ 0000000180023c78     libucrt:lcidtoname_downlevel.obj
 0002:00006c88       ??_C@_1M@LJKPEMLN@?$AAn?$AAn?$AA?9?$AAn?$AAo?$AA?$AA@ 0000000180023c88     libucrt:lcidtoname_downlevel.obj
 0002:00006c98       ??_C@_1M@BDGHHBFL@?$AAn?$AAs?$AA?9?$AAz?$AAa?$AA?$AA@ 0000000180023c98     libucrt:lcidtoname_downlevel.obj
 0002:00006ca8       ??_C@_1M@IDEHOAP@?$AAp?$AAa?$AA?9?$AAi?$AAn?$AA?$AA@ 0000000180023ca8     libucrt:lcidtoname_downlevel.obj
 0002:00006cb8       ??_C@_1M@HDBKGOGH@?$AAp?$AAl?$AA?9?$AAp?$AAl?$AA?$AA@ 0000000180023cb8     libucrt:lcidtoname_downlevel.obj
 0002:00006cc8       ??_C@_1M@LJLLCMEH@?$AAp?$AAt?$AA?9?$AAb?$AAr?$AA?$AA@ 0000000180023cc8     libucrt:lcidtoname_downlevel.obj
 0002:00006cd8       ??_C@_1M@NCMONAAL@?$AAp?$AAt?$AA?9?$AAp?$AAt?$AA?$AA@ 0000000180023cd8     libucrt:lcidtoname_downlevel.obj
 0002:00006ce8       ??_C@_1O@EAKMAJDN@?$AAq?$AAu?$AAz?$AA?9?$AAb?$AAo?$AA?$AA@ 0000000180023ce8     libucrt:lcidtoname_downlevel.obj
 0002:00006cf8       ??_C@_1O@BHHPIGDN@?$AAq?$AAu?$AAz?$AA?9?$AAe?$AAc?$AA?$AA@ 0000000180023cf8     libucrt:lcidtoname_downlevel.obj
 0002:00006d08       ??_C@_1O@GBAPEKMJ@?$AAq?$AAu?$AAz?$AA?9?$AAp?$AAe?$AA?$AA@ 0000000180023d08     libucrt:lcidtoname_downlevel.obj
 0002:00006d18       ??_C@_1M@CLGLEFBO@?$AAr?$AAo?$AA?9?$AAr?$AAo?$AA?$AA@ 0000000180023d18     libucrt:lcidtoname_downlevel.obj
 0002:00006d28       ??_C@_1M@CEEDODME@?$AAr?$AAu?$AA?9?$AAr?$AAu?$AA?$AA@ 0000000180023d28     libucrt:lcidtoname_downlevel.obj
 0002:00006d38       ??_C@_1M@HPKKKMPP@?$AAs?$AAa?$AA?9?$AAi?$AAn?$AA?$AA@ 0000000180023d38     libucrt:lcidtoname_downlevel.obj
 0002:00006d48       ??_C@_1M@BKMAIGOJ@?$AAs?$AAe?$AA?9?$AAf?$AAi?$AA?$AA@ 0000000180023d48     libucrt:lcidtoname_downlevel.obj
 0002:00006d58       ??_C@_1M@NDPIFLFI@?$AAs?$AAe?$AA?9?$AAn?$AAo?$AA?$AA@ 0000000180023d58     libucrt:lcidtoname_downlevel.obj
 0002:00006d68       ??_C@_1M@DANKKHJ@?$AAs?$AAe?$AA?9?$AAs?$AAe?$AA?$AA@ 0000000180023d68     libucrt:lcidtoname_downlevel.obj
 0002:00006d78       ??_C@_1M@PNBLONPJ@?$AAs?$AAk?$AA?9?$AAs?$AAk?$AA?$AA@ 0000000180023d78     libucrt:lcidtoname_downlevel.obj
 0002:00006d88       ??_C@_1M@LFMODOAL@?$AAs?$AAl?$AA?9?$AAs?$AAi?$AA?$AA@ 0000000180023d88     libucrt:lcidtoname_downlevel.obj
 0002:00006d98       ??_C@_1O@DFKOMPG@?$AAs?$AAm?$AAa?$AA?9?$AAn?$AAo?$AA?$AA@ 0000000180023d98     libucrt:lcidtoname_downlevel.obj
 0002:00006da8       ??_C@_1O@NDKPBNNH@?$AAs?$AAm?$AAa?$AA?9?$AAs?$AAe?$AA?$AA@ 0000000180023da8     libucrt:lcidtoname_downlevel.obj
 0002:00006db8       ??_C@_1O@PLLKBHAB@?$AAs?$AAm?$AAj?$AA?9?$AAn?$AAo?$AA?$AA@ 0000000180023db8     libucrt:lcidtoname_downlevel.obj
 0002:00006dc8       ??_C@_1O@CLEPOGCA@?$AAs?$AAm?$AAj?$AA?9?$AAs?$AAe?$AA?$AA@ 0000000180023dc8     libucrt:lcidtoname_downlevel.obj
 0002:00006dd8       ??_C@_1O@DLGJGKMK@?$AAs?$AAm?$AAn?$AA?9?$AAf?$AAi?$AA?$AA@ 0000000180023dd8     libucrt:lcidtoname_downlevel.obj
 0002:00006de8       ??_C@_1O@OJDJGAJC@?$AAs?$AAm?$AAs?$AA?9?$AAf?$AAi?$AA?$AA@ 0000000180023de8     libucrt:lcidtoname_downlevel.obj
 0002:00006df8       ??_C@_1M@BOFOGHPB@?$AAs?$AAq?$AA?9?$AAa?$AAl?$AA?$AA@ 0000000180023df8     libucrt:lcidtoname_downlevel.obj
 0002:00006e08       ??_C@_1BG@LJBBIPGB@?$AAs?$AAr?$AA?9?$AAb?$AAa?$AA?9?$AAc?$AAy?$AAr?$AAl?$AA?$AA@ 0000000180023e08     libucrt:lcidtoname_downlevel.obj
 0002:00006e20       ??_C@_1BG@JLBENFOE@?$AAs?$AAr?$AA?9?$AAb?$AAa?$AA?9?$AAl?$AAa?$AAt?$AAn?$AA?$AA@ 0000000180023e20     libucrt:lcidtoname_downlevel.obj
 0002:00006e38       ??_C@_1BG@KODPNHE@?$AAs?$AAr?$AA?9?$AAs?$AAp?$AA?9?$AAc?$AAy?$AAr?$AAl?$AA?$AA@ 0000000180023e38     libucrt:lcidtoname_downlevel.obj
 0002:00006e50       ??_C@_1BG@CIOGKHPB@?$AAs?$AAr?$AA?9?$AAs?$AAp?$AA?9?$AAl?$AAa?$AAt?$AAn?$AA?$AA@ 0000000180023e50     libucrt:lcidtoname_downlevel.obj
 0002:00006e68       ??_C@_1M@NGFJLMAC@?$AAs?$AAv?$AA?9?$AAf?$AAi?$AA?$AA@ 0000000180023e68     libucrt:lcidtoname_downlevel.obj
 0002:00006e78       ??_C@_1M@MPJEJAJC@?$AAs?$AAv?$AA?9?$AAs?$AAe?$AA?$AA@ 0000000180023e78     libucrt:lcidtoname_downlevel.obj
 0002:00006e88       ??_C@_1M@MPNDHLFK@?$AAs?$AAw?$AA?9?$AAk?$AAe?$AA?$AA@ 0000000180023e88     libucrt:lcidtoname_downlevel.obj
 0002:00006e98       ??_C@_1O@KOHBJJI@?$AAs?$AAy?$AAr?$AA?9?$AAs?$AAy?$AA?$AA@ 0000000180023e98     libucrt:lcidtoname_downlevel.obj
 0002:00006ea8       ??_C@_1M@LDCEFHA@?$AAt?$AAa?$AA?9?$AAi?$AAn?$AA?$AA@ 0000000180023ea8     libucrt:lcidtoname_downlevel.obj
 0002:00006eb8       ??_C@_1M@CNJOFAK@?$AAt?$AAe?$AA?9?$AAi?$AAn?$AA?$AA@ 0000000180023eb8     libucrt:lcidtoname_downlevel.obj
 0002:00006ec8       ??_C@_1M@GNAECACD@?$AAt?$AAh?$AA?9?$AAt?$AAh?$AA?$AA@ 0000000180023ec8     libucrt:lcidtoname_downlevel.obj
 0002:00006ed8       ??_C@_1M@CHBIHOJO@?$AAt?$AAn?$AA?9?$AAz?$AAa?$AA?$AA@ 0000000180023ed8     libucrt:lcidtoname_downlevel.obj
 0002:00006ee8       ??_C@_1M@GCCMIGPJ@?$AAt?$AAr?$AA?9?$AAt?$AAr?$AA?$AA@ 0000000180023ee8     libucrt:lcidtoname_downlevel.obj
 0002:00006ef8       ??_C@_1M@CELMCNBK@?$AAt?$AAt?$AA?9?$AAr?$AAu?$AA?$AA@ 0000000180023ef8     libucrt:lcidtoname_downlevel.obj
 0002:00006f08       ??_C@_1M@KLMCELGA@?$AAu?$AAk?$AA?9?$AAu?$AAa?$AA?$AA@ 0000000180023f08     libucrt:lcidtoname_downlevel.obj
 0002:00006f18       ??_C@_1M@EPAJJAJF@?$AAu?$AAr?$AA?9?$AAp?$AAk?$AA?$AA@ 0000000180023f18     libucrt:lcidtoname_downlevel.obj
 0002:00006f28       ??_C@_1BG@GEGPMCDJ@?$AAu?$AAz?$AA?9?$AAu?$AAz?$AA?9?$AAc?$AAy?$AAr?$AAl?$AA?$AA@ 0000000180023f28     libucrt:lcidtoname_downlevel.obj
 0002:00006f40       ??_C@_1BG@EGGKJILM@?$AAu?$AAz?$AA?9?$AAu?$AAz?$AA?9?$AAl?$AAa?$AAt?$AAn?$AA?$AA@ 0000000180023f40     libucrt:lcidtoname_downlevel.obj
 0002:00006f58       ??_C@_1M@GFOCLFF@?$AAv?$AAi?$AA?9?$AAv?$AAn?$AA?$AA@ 0000000180023f58     libucrt:lcidtoname_downlevel.obj
 0002:00006f68       ??_C@_1M@CPAMEDFI@?$AAx?$AAh?$AA?9?$AAz?$AAa?$AA?$AA@ 0000000180023f68     libucrt:lcidtoname_downlevel.obj
 0002:00006f78       ??_C@_1O@EBKIFIGN@?$AAz?$AAh?$AA?9?$AAc?$AAh?$AAs?$AA?$AA@ 0000000180023f78     libucrt:lcidtoname_downlevel.obj
 0002:00006f88       ??_C@_1O@NMHPGANE@?$AAz?$AAh?$AA?9?$AAc?$AAh?$AAt?$AA?$AA@ 0000000180023f88     libucrt:lcidtoname_downlevel.obj
 0002:00006f98       ??_C@_1M@LPINJOMC@?$AAz?$AAh?$AA?9?$AAc?$AAn?$AA?$AA@ 0000000180023f98     libucrt:lcidtoname_downlevel.obj
 0002:00006fa8       ??_C@_1M@OCJEJODD@?$AAz?$AAh?$AA?9?$AAh?$AAk?$AA?$AA@ 0000000180023fa8     libucrt:lcidtoname_downlevel.obj
 0002:00006fb8       ??_C@_1M@DNDLJINH@?$AAz?$AAh?$AA?9?$AAm?$AAo?$AA?$AA@ 0000000180023fb8     libucrt:lcidtoname_downlevel.obj
 0002:00006fc8       ??_C@_1M@MBFDNDND@?$AAz?$AAh?$AA?9?$AAs?$AAg?$AA?$AA@ 0000000180023fc8     libucrt:lcidtoname_downlevel.obj
 0002:00006fd8       ??_C@_1M@IMEPLEPE@?$AAz?$AAh?$AA?9?$AAt?$AAw?$AA?$AA@ 0000000180023fd8     libucrt:lcidtoname_downlevel.obj
 0002:00006fe8       ??_C@_1M@BBGHNHJP@?$AAz?$AAu?$AA?9?$AAz?$AAa?$AA?$AA@ 0000000180023fe8     libucrt:lcidtoname_downlevel.obj
 0002:00006ff8       __real@3ff0000000000000    0000000180023ff8     libucrt:ceil.obj
 0002:00007280       __log10_256_lead           0000000180024280     libucrt:log10_256_lead_tail_table.obj
 0002:00007a90       __log10_256_tail           0000000180024a90     libucrt:log10_256_lead_tail_table.obj
 0002:000082a0       __log_F_inv_qword          00000001800252a0     libucrt:log_f_inv_qword_table.obj
 0002:00008ab0       ??_C@_05HGHHAHAP@log10?$AA@ 0000000180025ab0     libucrt:log_special.obj
 0002:00008ab8       ??_C@_1BA@BALFACEM@?$AAC?$AAO?$AAN?$AAO?$AAU?$AAT?$AA$?$AA?$AA@ 0000000180025ab8     libucrt:initcon.obj
 0002:00008ae0       ??_C@_1BK@DBDEIDLH@?$AAK?$AAE?$AAR?$AAN?$AAE?$AAL?$AA3?$AA2?$AA?4?$AAD?$AAL?$AAL@ 0000000180025ae0     DelayImp:delayhlp.obj
 0002:00008b00       ??_C@_0BI@OMNLIJDB@AcquireSRWLockExclusive@ 0000000180025b00     DelayImp:delayhlp.obj
 0002:00008b18       ??_C@_0BI@HMIEPCNJ@ReleaseSRWLockExclusive@ 0000000180025b18     DelayImp:delayhlp.obj
 0002:00008b30       __pfnDliFailureHook2       0000000180025b30     DelayImp:delayhk1.obj
 0002:00008b40       _load_config_used          0000000180025b40     LIBCMT:loadcfg.obj
 0002:00008c40       ??_C@_1FO@OAICEIPN@?$AAe?$AA?3?$AA?2?$AAl?$AAe?$AAg?$AAo?$AA?2?$AAl?$AAe?$AAg?$AAo?$AA?2?$AAj?$AAs@ 0000000180025c40     binding.obj
 0002:00008ca0       ??_C@_1GA@PFOOBIAG@?$AAl?$AAe?$AAn?$AAg?$AAt?$AAh?$AA?5?$AA?$DM?$AA?$DN?$AA?5?$AAi?$AAm?$AAp?$AA?3?$AA?3@ 0000000180025ca0     binding.obj
 0002:00008d00       ??_C@_0CC@DPJFAJAC@address?3?5Buffer?5instance?5expect@ 0000000180025d00     binding.obj
 0002:00008d28       ??_C@_0CF@CDOAPIAH@hexAddress?3?5Buffer?5instance?5exp@ 0000000180025d28     binding.obj
 0002:00008d50       ??_C@_02BBAHNLBA@?$CFp@    0000000180025d50     binding.obj
 0002:00008d58       ??_C@_0CB@MEIKLGAN@isNull?3?5Buffer?5instance?5expecte@ 0000000180025d58     binding.obj
 0002:00008d7c       ??_C@_02PEDAOJAJ@LE@       0000000180025d7c     binding.obj
 0002:00008d80       ??_C@_0CF@PNPHGGIN@readObject?3?5Buffer?5instance?5exp@ 0000000180025d80     binding.obj
 0002:00008da8       ??_C@_0CK@COMINFKC@readObject?3?5Cannot?5read?5from?5NU@ 0000000180025da8     binding.obj
 0002:00008dd8       ??_C@_0CG@INPFBDFJ@writeObject?3?5Buffer?5instance?5ex@ 0000000180025dd8     binding.obj
 0002:00008e00       ??_C@_0DI@KMJOADMP@readPointer?3?5Buffer?5instance?5ex@ 0000000180025e00     binding.obj
 0002:00008e38       ??_C@_0CL@KBOPJBLG@readPointer?3?5Cannot?5read?5from?5N@ 0000000180025e38     binding.obj
 0002:00008e68       ??_C@_0DJ@KHGFNHCO@writePointer?3?5Buffer?5instance?5e@ 0000000180025e68     binding.obj
 0002:00008ea8       ??_C@_0DJ@LABDIJFL@writePointer?3?5Buffer?5instance?5e@ 0000000180025ea8     binding.obj
 0002:00008ee8       ??_C@_0CE@IOPFPGLB@readInt64?3?5Buffer?5instance?5expe@ 0000000180025ee8     binding.obj
 0002:00008f10       ??_C@_0CJ@PAMPJPNK@readInt64?3?5Cannot?5read?5from?5NUL@ 0000000180025f10     binding.obj
 0002:00008f3c       ??_C@_04BFAHMMK@?$CFlld@   0000000180025f3c     binding.obj
 0002:00008f48       ??_C@_0CF@OGHEKNLE@writeInt64?3?5Buffer?5instance?5exp@ 0000000180025f48     binding.obj
 0002:00008f70       ??_C@_0CP@NCIILIC@writeInt64?3?5no?5digits?5we?5found?5@ 0000000180025f70     binding.obj
 0002:00008fa0       ??_C@_0DG@JDPEOKAB@writeInt64?3?5input?5String?5numeri@ 0000000180025fa0     binding.obj
 0002:00008fd8       ??_C@_0P@MKKCJDMD@writeInt64?3?5?$CFs@ 0000000180025fd8     binding.obj
 0002:00008fe8       ??_C@_0DA@JEKNBHFK@writeInt64?3?5Number?1String?564?9bi@ 0000000180025fe8     binding.obj
 0002:00009018       ??_C@_0CF@OLPJBHBA@readUInt64?3?5Buffer?5instance?5exp@ 0000000180026018     binding.obj
 0002:00009040       ??_C@_0CK@MCNLGJCH@readUInt64?3?5Cannot?5read?5from?5NU@ 0000000180026040     binding.obj
 0002:0000906c       ??_C@_04FCIJFPNK@?$CFllu@  000000018002606c     binding.obj
 0002:00009078       ??_C@_0CG@JLPLGCME@writeUInt64?3?5Buffer?5instance?5ex@ 0000000180026078     binding.obj
 0002:000090a0       ??_C@_0DA@JLLLOEBO@writeUInt64?3?5no?5digits?5we?5found@ 00000001800260a0     binding.obj
 0002:000090d0       ??_C@_0DH@EMLDKIHO@writeUInt64?3?5input?5String?5numer@ 00000001800260d0     binding.obj
 0002:00009108       ??_C@_0BA@IFKEAFDM@writeUInt64?3?5?$CFs@ 0000000180026108     binding.obj
 0002:00009118       ??_C@_0DB@GNICFLFK@writeUInt64?3?5Number?1String?564?9b@ 0000000180026118     binding.obj
 0002:00009150       ??_C@_0CG@ELIKEPGN@readCString?3?5Buffer?5instance?5ex@ 0000000180026150     binding.obj
 0002:00009178       ??_C@_0CL@DFJAAAPE@readCString?3?5Cannot?5read?5from?5N@ 0000000180026178     binding.obj
 0002:000091a8       ??_C@_0CG@GJJKDCPC@reinterpret?3?5Buffer?5instance?5ex@ 00000001800261a8     binding.obj
 0002:000091d0       ??_C@_0DC@FEMIIEMO@reinterpret?3?5Cannot?5reinterpret@ 00000001800261d0     binding.obj
 0002:00009208       ??_C@_0DA@GHACKNLG@reinterpretUntilZeros?3?5Buffer?5i@ 0000000180026208     binding.obj
 0002:00009238       ??_C@_0DM@DHPMBOFM@reinterpretUntilZeros?3?5Cannot?5r@ 0000000180026238     binding.obj
 0002:00009274       ??_C@_04DCGBOBJJ@int8@     0000000180026274     binding.obj
 0002:0000927c       ??_C@_05BOGOCLFF@uint8@    000000018002627c     binding.obj
 0002:00009284       ??_C@_05PCMOAPL@int16@     0000000180026284     binding.obj
 0002:0000928c       ??_C@_06JNNCGBKK@uint16@   000000018002628c     binding.obj
 0002:00009294       ??_C@_05GIMEPBJB@int32@    0000000180026294     binding.obj
 0002:0000929c       ??_C@_06PKDKHAMA@uint32@   000000018002629c     binding.obj
 0002:000092a4       ??_C@_05DIFFJEPM@int64@    00000001800262a4     binding.obj
 0002:000092ac       ??_C@_06KKKLBFKN@uint64@   00000001800262ac     binding.obj
 0002:000092b4       ??_C@_05KNFBNCOH@float@    00000001800262b4     binding.obj
 0002:000092bc       ??_C@_06BNJCAIGJ@double@   00000001800262bc     binding.obj
 0002:000092c4       ??_C@_04DDKJGDCM@bool@     00000001800262c4     binding.obj
 0002:000092cc       ??_C@_04IHGKJMLH@byte@     00000001800262cc     binding.obj
 0002:000092d4       ??_C@_04ENMBGAPA@char@     00000001800262d4     binding.obj
 0002:000092dc       ??_C@_05GBMOKKDM@uchar@    00000001800262dc     binding.obj
 0002:000092e4       ??_C@_05BFKKPKCG@short@    00000001800262e4     binding.obj
 0002:000092ec       ??_C@_06IHFEHLHH@ushort@   00000001800262ec     binding.obj
 0002:000092f4       ??_C@_03JBIPMCLC@int@      00000001800262f4     binding.obj
 0002:000092f8       ??_C@_04EHNLIFAM@uint@     00000001800262f8     binding.obj
 0002:00009300       ??_C@_04GOKPGOLB@long@     0000000180026300     binding.obj
 0002:00009308       ??_C@_05ECKAKEHN@ulong@    0000000180026308     binding.obj
 0002:00009310       ??_C@_08DDGAEFPP@longlong@ 0000000180026310     binding.obj
 0002:00009320       ??_C@_09CGIDHHPL@ulonglong@ 0000000180026320     binding.obj
 0002:00009330       ??_C@_07PFMCDPMA@pointer@  0000000180026330     binding.obj
 0002:00009338       ??_C@_06DMBJOIF@size_t@    0000000180026338     binding.obj
 0002:00009340       ??_C@_06ELFECKBG@Object@   0000000180026340     binding.obj
 0002:00009348       ??_C@_06FPFOALMG@sizeof@   0000000180026348     binding.obj
 0002:00009350       ??_C@_07GFLGJDOB@alignof@  0000000180026350     binding.obj
 0002:00009358       ??_C@_0L@NDJODAMI@endianness@ 0000000180026358     binding.obj
 0002:00009364       ??_C@_04HIBGFPH@NULL@      0000000180026364     binding.obj
 0002:00009370       ??_C@_07LHEPONKL@address@  0000000180026370     binding.obj
 0002:00009378       ??_C@_0L@NGDODIPM@hexAddress@ 0000000180026378     binding.obj
 0002:00009384       ??_C@_06MCKMPGLB@isNull@   0000000180026384     binding.obj
 0002:00009390       ??_C@_0L@DDIGFLCE@readObject@ 0000000180026390     binding.obj
 0002:000093a0       ??_C@_0M@EDMHKDPC@writeObject@ 00000001800263a0     binding.obj
 0002:000093b0       ??_C@_0M@MEBLNOGH@readPointer@ 00000001800263b0     binding.obj
 0002:000093c0       ??_C@_0N@KLNLOIHO@writePointer@ 00000001800263c0     binding.obj
 0002:000093d0       ??_C@_09OKEBABIC@readInt64@ 00000001800263d0     binding.obj
 0002:000093e0       ??_C@_0L@MBENFIIH@writeInt64@ 00000001800263e0     binding.obj
 0002:000093f0       ??_C@_0L@BKGIFIDF@readUInt64@ 00000001800263f0     binding.obj
 0002:00009400       ??_C@_0M@GKCJKAOD@writeUInt64@ 0000000180026400     binding.obj
 0002:00009410       ??_C@_0M@NKCHMKPI@readCString@ 0000000180026410     binding.obj
 0002:00009420       ??_C@_0M@FOFOAEAO@reinterpret@ 0000000180026420     binding.obj
 0002:00009430       ??_C@_0BG@OCDBEFEP@reinterpretUntilZeros@ 0000000180026430     binding.obj
 0002:00009448       ??_C@_0DI@HILBHMMM@e?3?2lego?2lego?2js?9sdk?9sdk?2node_mo@ 0000000180026448     binding.obj
 0002:00009480       ??_C@_07GGKKJCAC@binding@  0000000180026480     binding.obj
 0002:00009488       ??_C@_08HCOMDCCD@iojs?4exe@ 0000000180026488     win_delay_load_hook.obj
 0002:00009498       ??_C@_08JDDNMFDB@node?4exe@ 0000000180026498     win_delay_load_hook.obj
 0002:000094a8       __pfnDliNotifyHook2        00000001800264a8     win_delay_load_hook.obj
 0002:000094b0       __real@43f0000000000000    00000001800264b0     binding.obj
 0002:00009530       ??_R4exception@std@@6B@    0000000180026530     LIBCMT:throw_bad_alloc.obj
 0002:00009558       ??_R3exception@std@@8      0000000180026558     LIBCMT:throw_bad_alloc.obj
 0002:00009570       ??_R2exception@std@@8      0000000180026570     LIBCMT:throw_bad_alloc.obj
 0002:00009580       ??_R1A@?0A@EA@exception@std@@8 0000000180026580     LIBCMT:throw_bad_alloc.obj
 0002:000095a8       ??_R4bad_alloc@std@@6B@    00000001800265a8     LIBCMT:throw_bad_alloc.obj
 0002:000095d0       ??_R3bad_alloc@std@@8      00000001800265d0     LIBCMT:throw_bad_alloc.obj
 0002:000095e8       ??_R2bad_alloc@std@@8      00000001800265e8     LIBCMT:throw_bad_alloc.obj
 0002:00009600       ??_R1A@?0A@EA@bad_alloc@std@@8 0000000180026600     LIBCMT:throw_bad_alloc.obj
 0002:00009628       ??_R4bad_array_new_length@std@@6B@ 0000000180026628     LIBCMT:throw_bad_alloc.obj
 0002:00009650       ??_R3bad_array_new_length@std@@8 0000000180026650     LIBCMT:throw_bad_alloc.obj
 0002:00009668       ??_R2bad_array_new_length@std@@8 0000000180026668     LIBCMT:throw_bad_alloc.obj
 0002:00009688       ??_R1A@?0A@EA@bad_array_new_length@std@@8 0000000180026688     LIBCMT:throw_bad_alloc.obj
 0002:000096b0       ??_R4type_info@@6B@        00000001800266b0     LIBCMT:std_type_info_static.obj
 0002:000096d8       ??_R3type_info@@8          00000001800266d8     LIBCMT:std_type_info_static.obj
 0002:000096f0       ??_R2type_info@@8          00000001800266f0     LIBCMT:std_type_info_static.obj
 0002:00009700       ??_R1A@?0A@EA@type_info@@8 0000000180026700     LIBCMT:std_type_info_static.obj
 0002:00009728       ??_R4bad_exception@std@@6B@ 0000000180026728     libvcruntime:frame.obj
 0002:00009750       ??_R3bad_exception@std@@8  0000000180026750     libvcruntime:frame.obj
 0002:00009768       ??_R2bad_exception@std@@8  0000000180026768     libvcruntime:frame.obj
 0002:00009780       ??_R1A@?0A@EA@bad_exception@std@@8 0000000180026780     libvcruntime:frame.obj
 0002:00009b58       __rtc_iaa                  0000000180026b58     LIBCMT:_initsect_.obj
 0002:00009b60       __rtc_izz                  0000000180026b60     LIBCMT:_initsect_.obj
 0002:00009b68       __rtc_taa                  0000000180026b68     LIBCMT:_initsect_.obj
 0002:00009b70       __rtc_tzz                  0000000180026b70     LIBCMT:_initsect_.obj
 0002:0000b1f0       _TI2?AVbad_alloc@std@@     00000001800281f0     LIBCMT:throw_bad_alloc.obj
 0002:0000b210       _CTA2?AVbad_alloc@std@@    0000000180028210     LIBCMT:throw_bad_alloc.obj
 0002:0000b228       _CT??_R0?AVbad_alloc@std@@@8??0bad_alloc@std@@QEAA@AEBV01@@Z24 0000000180028228     LIBCMT:throw_bad_alloc.obj
 0002:0000b250       _CT??_R0?AVexception@std@@@8??0exception@std@@QEAA@AEBV01@@Z24 0000000180028250     LIBCMT:throw_bad_alloc.obj
 0002:0000b278       _TI3?AVbad_array_new_length@std@@ 0000000180028278     LIBCMT:throw_bad_alloc.obj
 0002:0000b298       _CTA3?AVbad_array_new_length@std@@ 0000000180028298     LIBCMT:throw_bad_alloc.obj
 0002:0000b2b8       _CT??_R0?AVbad_array_new_length@std@@@8??0bad_array_new_length@std@@QEAA@AEBV01@@Z24 00000001800282b8     LIBCMT:throw_bad_alloc.obj
 0002:0000b2e0       _TI2?AVbad_exception@std@@ 00000001800282e0     libvcruntime:frame.obj
 0002:0000b300       _CTA2?AVbad_exception@std@@ 0000000180028300     libvcruntime:frame.obj
 0002:0000b318       _CT??_R0?AVbad_exception@std@@@8??0bad_exception@std@@QEAA@AEBV01@@Z24 0000000180028318     libvcruntime:frame.obj
 0002:0000b33c       __DELAY_IMPORT_DESCRIPTOR_node_exe 000000018002833c     node:node.exe
 0002:0000b35c       __NULL_DELAY_IMPORT_DESCRIPTOR 000000018002835c     node:node.exe
 0002:0000b4e0       \177node_NULL_THUNK_DATA_DLN 00000001800284e0     node:node.exe
 0002:0000c110       \177node_NULL_THUNK_DATA_DLB 0000000180029110     node:node.exe
 0002:0000c2c4       __IMPORT_DESCRIPTOR_KERNEL32 00000001800292c4     kernel32:KERNEL32.dll
 0002:0000c2d8       __NULL_IMPORT_DESCRIPTOR   00000001800292d8     kernel32:KERNEL32.dll
 0003:00000000       __security_cookie_complement 000000018002a000     LIBCMT:gs_cookie.obj
 0003:00000008       __security_cookie          000000018002a008     LIBCMT:gs_cookie.obj
 0003:00000010       __scrt_native_dllmain_reason 000000018002a010     LIBCMT:utility.obj
 0003:00000018       __isa_available            000000018002a018     LIBCMT:_cpu_disp_.obj
 0003:0000001c       __isa_enabled              000000018002a01c     LIBCMT:_cpu_disp_.obj
 0003:00000020       __memcpy_nt_iters          000000018002a020     LIBCMT:_cpu_disp_.obj
 0003:00000050       __abort_behavior           000000018002a050     libucrt:abort.obj
 0003:00000058       _pwctype                   000000018002a058     libucrt:ctype.obj
 0003:00000070       __acrt_initial_locale_data 000000018002a070     libucrt:nlsdata.obj
 0003:000001c8       __acrt_initial_locale_pointers 000000018002a1c8     libucrt:nlsdata.obj
 0003:000001d8       __acrt_wide_c_locale_string 000000018002a1d8     libucrt:nlsdata.obj
 0003:000001e0       _iob                       000000018002a1e0     libucrt:_file.obj
 0003:000002f0       __badioinfo                000000018002a2f0     libucrt:ioinit.obj
 0003:00000430       __acrt_initial_multibyte_data 000000018002a430     libucrt:mbctype.obj
 0003:00000870       __globallocalestatus       000000018002a870     libucrt:glstatus.obj
 0003:00000880       __acrt_lconv_c             000000018002a880     libucrt:localeconv.obj
 0003:00000918       __acrt_lconv_static_decimal 000000018002a918     libucrt:localeconv.obj
 0003:0000091c       __acrt_lconv_static_W_decimal 000000018002a91c     libucrt:localeconv.obj
 0003:00000940       _fltused                   000000018002a940     LIBCMT:fltused.obj
 0003:00000990       ??_R0?AVbad_alloc@std@@@8  000000018002a990     LIBCMT:throw_bad_alloc.obj
 0003:000009b8       ??_R0?AVexception@std@@@8  000000018002a9b8     LIBCMT:throw_bad_alloc.obj
 0003:000009e0       ??_R0?AVbad_array_new_length@std@@@8 000000018002a9e0     LIBCMT:throw_bad_alloc.obj
 0003:00000a10       ??_R0?AVtype_info@@@8      000000018002aa10     LIBCMT:std_type_info_static.obj
 0003:00000a30       ??_R0?AVbad_exception@std@@@8 000000018002aa30     libvcruntime:frame.obj
 0003:00000a58       __imp_?Value@External@v8@@QEBAPEAXXZ 000000018002aa58     node:node.exe
 0003:00000a60       __imp_?New@External@v8@@SA?AV?$Local@VExternal@v8@@@2@PEAVIsolate@2@PEAX@Z 000000018002aa60     node:node.exe
 0003:00000a68       __imp_?NewFromUnsigned@Integer@v8@@SA?AV?$Local@VInteger@v8@@@2@PEAVIsolate@2@I@Z 000000018002aa68     node:node.exe
 0003:00000a70       __imp_?ThrowException@Isolate@v8@@QEAA?AV?$Local@VValue@v8@@@2@V32@@Z 000000018002aa70     node:node.exe
 0003:00000a78       __imp_?GetCurrentContext@Isolate@v8@@QEAA?AV?$Local@VContext@v8@@@2@XZ 000000018002aa78     node:node.exe
 0003:00000a80       __imp_?GetCurrent@Isolate@v8@@SAPEAV12@XZ 000000018002aa80     node:node.exe
 0003:00000a88       __imp_?CreateHandle@HandleScope@v8@@KAPEAPEAVObject@internal@2@PEAVIsolate@42@PEAV342@@Z 000000018002aa88     node:node.exe
 0003:00000a90       __imp_?CreateHandle@HandleScope@v8@@CAPEAPEAVObject@internal@2@PEAVHeapObject@42@PEAV342@@Z 000000018002aa90     node:node.exe
 0003:00000a98       __imp_??1HandleScope@v8@@QEAA@XZ 000000018002aa98     node:node.exe
 0003:00000aa0       __imp_??0HandleScope@v8@@QEAA@PEAVIsolate@1@@Z 000000018002aaa0     node:node.exe
 0003:00000aa8       __imp_?Error@Exception@v8@@SA?AV?$Local@VValue@v8@@@2@V?$Local@VString@v8@@@2@@Z 000000018002aaa8     node:node.exe
 0003:00000ab0       __imp_?TypeError@Exception@v8@@SA?AV?$Local@VValue@v8@@@2@V?$Local@VString@v8@@@2@@Z 000000018002aab0     node:node.exe
 0003:00000ab8       __imp_?SetClassName@FunctionTemplate@v8@@QEAAXV?$Local@VString@v8@@@2@@Z 000000018002aab8     node:node.exe
 0003:00000ac0       __imp_?GetFunction@FunctionTemplate@v8@@QEAA?AV?$MaybeLocal@VFunction@v8@@@2@V?$Local@VContext@v8@@@2@@Z 000000018002aac0     node:node.exe
 0003:00000ac8       __imp_?New@FunctionTemplate@v8@@SA?AV?$Local@VFunctionTemplate@v8@@@2@PEAVIsolate@2@P6AXAEBV?$FunctionCallbackInfo@VValue@v8@@@2@@ZV?$Local@VValue@v8@@@2@V?$Local@VSignature@v8@@@2@HW4ConstructorBehavior@2@W4SideEffectType@2@@Z 000000018002aac8     node:node.exe
 0003:00000ad0       __imp_?ToLocalEmpty@V8@v8@@CAXXZ 000000018002aad0     node:node.exe
 0003:00000ad8       __imp_?MakeWeak@V8@v8@@CAXPEAPEAVObject@internal@2@PEAXP6AXAEBV?$WeakCallbackInfo@X@2@@ZW4WeakCallbackType@2@@Z 000000018002aad8     node:node.exe
 0003:00000ae0       __imp_?DisposeGlobal@V8@v8@@CAXPEAPEAVObject@internal@2@@Z 000000018002aae0     node:node.exe
 0003:00000ae8       __imp_?GlobalizeReference@V8@v8@@CAPEAPEAVObject@internal@2@PEAVIsolate@42@PEAPEAV342@@Z 000000018002aae8     node:node.exe
 0003:00000af0       __imp_?Uint32Value@Value@v8@@QEBAIXZ 000000018002aaf0     node:node.exe
 0003:00000af8       __imp_?IntegerValue@Value@v8@@QEBA?AV?$Maybe@_J@2@V?$Local@VContext@v8@@@2@@Z 000000018002aaf8     node:node.exe
 0003:00000b00       __imp_?BooleanValue@Value@v8@@QEBA_NXZ 000000018002ab00     node:node.exe
 0003:00000b08       __imp_?ToUint32@Value@v8@@QEBA?AV?$MaybeLocal@VUint32@v8@@@2@V?$Local@VContext@v8@@@2@@Z 000000018002ab08     node:node.exe
 0003:00000b10       __imp_?IsNumber@Value@v8@@QEBA_NXZ 000000018002ab10     node:node.exe
 0003:00000b18       __imp_?IsName@Value@v8@@QEBA_NXZ 000000018002ab18     node:node.exe
 0003:00000b20       __imp_?Escape@EscapableHandleScope@v8@@AEAAPEAPEAVObject@internal@2@PEAPEAV342@@Z 000000018002ab20     node:node.exe
 0003:00000b28       __imp_??0EscapableHandleScope@v8@@QEAA@PEAVIsolate@1@@Z 000000018002ab28     node:node.exe
 0003:00000b30       __imp_??1Utf8Value@String@v8@@QEAA@XZ 000000018002ab30     node:node.exe
 0003:00000b38       __imp_??0Utf8Value@String@v8@@QEAA@V?$Local@VValue@v8@@@2@@Z 000000018002ab38     node:node.exe
 0003:00000b40       __imp_?NewFromUtf8@String@v8@@SA?AV?$MaybeLocal@VString@v8@@@2@PEAVIsolate@2@PEBDW4NewStringType@2@H@Z 000000018002ab40     node:node.exe
 0003:00000b48       __imp_?New@Number@v8@@SA?AV?$Local@VNumber@v8@@@2@PEAVIsolate@2@N@Z 000000018002ab48     node:node.exe
 0003:00000b50       __imp_?SlowGetInternalField@Object@v8@@AEAA?AV?$Local@VValue@v8@@@2@H@Z 000000018002ab50     node:node.exe
 0003:00000b58       __imp_?New@Object@v8@@SA?AV?$Local@VObject@v8@@@2@PEAVIsolate@2@@Z 000000018002ab58     node:node.exe
 0003:00000b60       __imp_?SetInternalField@Object@v8@@QEAAXHV?$Local@VValue@v8@@@2@@Z 000000018002ab60     node:node.exe
 0003:00000b68       __imp_?DefineOwnProperty@Object@v8@@QEAA?AV?$Maybe@_N@2@V?$Local@VContext@v8@@@2@V?$Local@VName@v8@@@2@V?$Local@VValue@v8@@@2@W4PropertyAttribute@2@@Z 000000018002ab68     node:node.exe
 0003:00000b70       __imp_?Set@Object@v8@@QEAA_NV?$Local@VValue@v8@@@2@0@Z 000000018002ab70     node:node.exe
 0003:00000b78       __imp_?Set@Object@v8@@QEAA?AV?$Maybe@_N@2@V?$Local@VContext@v8@@@2@V?$Local@VValue@v8@@@2@1@Z 000000018002ab78     node:node.exe
 0003:00000b80       __imp_?SetInternalFieldCount@ObjectTemplate@v8@@QEAAXH@Z 000000018002ab80     node:node.exe
 0003:00000b88       __imp_?NewInstance@ObjectTemplate@v8@@QEAA?AV?$MaybeLocal@VObject@v8@@@2@V?$Local@VContext@v8@@@2@@Z 000000018002ab88     node:node.exe
 0003:00000b90       __imp_?New@ObjectTemplate@v8@@SA?AV?$Local@VObjectTemplate@v8@@@2@PEAVIsolate@2@V?$Local@VFunctionTemplate@v8@@@2@@Z 000000018002ab90     node:node.exe
 0003:00000b98       __imp_node_module_register 000000018002ab98     node:node.exe
 0003:00000ba0       __imp_?HasInstance@Buffer@node@@YA_NV?$Local@VValue@v8@@@v8@@@Z 000000018002aba0     node:node.exe
 0003:00000ba8       __imp_?New@Buffer@node@@YA?AV?$MaybeLocal@VObject@v8@@@v8@@PEAVIsolate@4@PEAD_KP6AX1PEAX@Z3@Z 000000018002aba8     node:node.exe
 0003:00000bb0       __imp_?Data@Buffer@node@@YAPEADV?$Local@VObject@v8@@@v8@@@Z 000000018002abb0     node:node.exe
 0003:00000bb8       \177node_NULL_THUNK_DATA_DLA 000000018002abb8     node:node.exe
 0003:00000bc0       __hmod__node_exe           000000018002abc0     node:node.exe
 0003:00001140       ?__type_info_root_node@@3U__type_info_node@@A 000000018002b140     LIBCMT:tncleanup.obj
 0003:00001150       ?_OptionsStorage@?1??__local_stdio_scanf_options@@9@4_KA 000000018002b150     LIBCMT:default_local_stdio_options.obj
 0003:00001158       __scrt_current_native_startup_state 000000018002b158     LIBCMT:utility.obj
 0003:00001160       __scrt_native_startup_lock 000000018002b160     LIBCMT:utility.obj
 0003:000011a0       __scrt_debugger_hook_flag  000000018002b1a0     LIBCMT:utility_desktop.obj
 0003:000011a4       __favor                    000000018002b1a4     LIBCMT:_cpu_disp_.obj
 0003:000011a8       ?__WinRTOutOfMemoryExceptionCallback@@3P6APEAXXZEA 000000018002b1a8     libvcruntime:ehhelpers.obj
 0003:000011b0       ?pArgList@UnDecorator@@0PEAVReplicator@@EA 000000018002b1b0     libvcruntime:undname.obj
 0003:000011b8       ?pZNameList@UnDecorator@@0PEAVReplicator@@EA 000000018002b1b8     libvcruntime:undname.obj
 0003:000011c0       ?pTemplateArgList@UnDecorator@@0PEAVReplicator@@EA 000000018002b1c0     libvcruntime:undname.obj
 0003:000011c8       ?gName@UnDecorator@@0PEBDEB 000000018002b1c8     libvcruntime:undname.obj
 0003:000011d0       ?name@UnDecorator@@0PEBDEB 000000018002b1d0     libvcruntime:undname.obj
 0003:000011d8       ?disableFlags@UnDecorator@@0KA 000000018002b1d8     libvcruntime:undname.obj
 0003:000011dc       ?fExplicitTemplateParams@UnDecorator@@0_NA 000000018002b1dc     libvcruntime:undname.obj
 0003:000011dd       ?fGetTemplateArgumentList@UnDecorator@@0_NA 000000018002b1dd     libvcruntime:undname.obj
 0003:000011e0       ?m_pGetParameter@UnDecorator@@0P6APEADJ@ZEA 000000018002b1e0     libvcruntime:undname.obj
 0003:000011e8       ?m_CHPENameOffset@UnDecorator@@0KA 000000018002b1e8     libvcruntime:undname.obj
 0003:000011ec       ?m_recursionLevel@UnDecorator@@0KA 000000018002b1ec     libvcruntime:undname.obj
 0003:00001320       __pPurecall                000000018002b320     libvcruntime:purevirt_data.obj
 0003:00001340       ?c_exit_complete@?1???R<lambda_6e4b09c48022b2350581041d5f6b0c4c>@@QEBA@XZ@4_NA 000000018002b340     libucrt:exit.obj
 0003:00001458       _environ_table             000000018002b458     libucrt:environment_initialization.obj
 0003:00001460       _wenviron_table            000000018002b460     libucrt:environment_initialization.obj
 0003:00001468       __dcrt_initial_wide_environment 000000018002b468     libucrt:environment_initialization.obj
 0003:00001470       __dcrt_initial_narrow_environment 000000018002b470     libucrt:environment_initialization.obj
 0003:00001478       __acrt_atexit_table        000000018002b478     libucrt:onexit.obj
 0003:00001490       __acrt_at_quick_exit_table 000000018002b490     libucrt:onexit.obj
 0003:000014b0       __acrt_locale_changed_data 000000018002b4b0     libucrt:wsetlocale.obj
 0003:000014b8       __acrt_current_locale_data 000000018002b4b8     libucrt:nlsdata.obj
 0003:000014c8       _nstream                   000000018002b4c8     libucrt:_file.obj
 0003:000014d0       __piob                     000000018002b4d0     libucrt:_file.obj
 0003:000014d8       _cflush                    000000018002b4d8     libucrt:_file.obj
 0003:000014e8       __acrt_stdout_buffer       000000018002b4e8     libucrt:_sftbuf.obj
 0003:000014f0       __acrt_stderr_buffer       000000018002b4f0     libucrt:_sftbuf.obj
 0003:00001500       __pioinfo                  000000018002b500     libucrt:ioinit.obj
 0003:00001900       _nhandle                   000000018002b900     libucrt:ioinit.obj
 0003:00001b70       __acrt_current_multibyte_data 000000018002bb70     libucrt:mbctype.obj
 0003:00001b78       _mbctype                   000000018002bb78     libucrt:mbctype.obj
 0003:00001b80       _mbcasemap                 000000018002bb80     libucrt:mbctype.obj
 0003:00001b90       __argc                     000000018002bb90     libucrt:argv_data.obj
 0003:00001b98       __argv                     000000018002bb98     libucrt:argv_data.obj
 0003:00001ba0       __wargv                    000000018002bba0     libucrt:argv_data.obj
 0003:00001ba8       _acmdln                    000000018002bba8     libucrt:argv_data.obj
 0003:00001bb0       _wcmdln                    000000018002bbb0     libucrt:argv_data.obj
 0003:00001bb8       _pgmptr                    000000018002bbb8     libucrt:argv_data.obj
 0003:00001d70       __acrt_heap                000000018002bd70     libucrt:heap_handle.obj
 0003:00001d80       __acrt_lconv_static_null   000000018002bd80     libucrt:localeconv.obj
 0003:00001d84       __acrt_lconv_static_W_null 000000018002bd84     libucrt:localeconv.obj
 0003:00001d98       __fma3_is_available        000000018002bd98     libucrt:fma3_available.obj
 0003:00001d9c       __use_fma3_lib             000000018002bd9c     libucrt:fma3_available.obj
 0003:00001da8       ?DloadKernel32@@3PEAUHINSTANCE__@@EA 000000018002bda8     DelayImp:delayhlp.obj
 0003:00001db0       ?DloadAcquireSRWLockExclusive@@3P6AXPEA_K@ZEA 000000018002bdb0     DelayImp:delayhlp.obj
 0003:00001db8       ?DloadReleaseSRWLockExclusive@@3P6AXPEA_K@ZEA 000000018002bdb8     DelayImp:delayhlp.obj
 0003:00001dc0       ?DloadSrwLock@@3_KA        000000018002bdc0     DelayImp:delayhlp.obj
 0003:00001dc8       ?DloadSectionLockCount@@3KA 000000018002bdc8     DelayImp:delayhlp.obj
 0003:00001dcc       ?DloadSectionOldProtection@@3KA 000000018002bdcc     DelayImp:delayhlp.obj
 0003:00001dd0       ?DloadSectionCommitPermanent@@3KA 000000018002bdd0     DelayImp:delayhlp.obj
 0003:00001dd8       ?_OptionsStorage@?1??__local_stdio_printf_options@@9@4_KA 000000018002bdd8     binding.obj
 0003:00001de0       __scrt_ucrt_dll_is_in_use  000000018002bde0     <common>
 0003:00001de8       __dyn_tls_init_callback    000000018002bde8     <common>

 entry point at        0001:00004a48

 Static symbols

 0000:fffd0000       .debug$S                   0000000180000000     kernel32:KERNEL32.dll
 0000:fffd0000       .debug$S                   0000000180000000     kernel32:KERNEL32.dll
 0000:fffd0000       .debug$S                   0000000180000000     kernel32:KERNEL32.dll
 0000:fffd0000       .debug$S                   0000000180000000     kernel32:KERNEL32.dll
 0000:fffd0000       .debug$S                   0000000180000000     kernel32:KERNEL32.dll
 0000:fffd0000       .debug$S                   0000000180000000     kernel32:KERNEL32.dll
 0000:fffd0000       .debug$S                   0000000180000000     kernel32:KERNEL32.dll
 0000:fffd0000       .debug$S                   0000000180000000     kernel32:KERNEL32.dll
 0000:fffd0000       .debug$S                   0000000180000000     kernel32:KERNEL32.dll
 0000:fffd0000       .debug$S                   0000000180000000     kernel32:KERNEL32.dll
 0000:fffd0000       .debug$S                   0000000180000000     kernel32:KERNEL32.dll
 0000:fffd0000       .debug$S                   0000000180000000     kernel32:KERNEL32.dll
 0000:fffd0000       .debug$S                   0000000180000000     kernel32:KERNEL32.dll
 0000:fffd0000       .debug$S                   0000000180000000     kernel32:KERNEL32.dll
 0000:fffd0000       .debug$S                   0000000180000000     kernel32:KERNEL32.dll
 0000:fffd0000       .debug$S                   0000000180000000     kernel32:KERNEL32.dll
 0000:fffd0000       .debug$S                   0000000180000000     kernel32:KERNEL32.dll
 0000:fffd0000       .debug$S                   0000000180000000     kernel32:KERNEL32.dll
 0000:fffd0000       .debug$S                   0000000180000000     kernel32:KERNEL32.dll
 0000:fffd0000       .debug$S                   0000000180000000     kernel32:KERNEL32.dll
 0000:fffd0000       .debug$S                   0000000180000000     kernel32:KERNEL32.dll
 0000:fffd0000       .debug$S                   0000000180000000     kernel32:KERNEL32.dll
 0000:fffd0000       .debug$S                   0000000180000000     kernel32:KERNEL32.dll
 0000:fffd0000       .debug$S                   0000000180000000     kernel32:KERNEL32.dll
 0000:fffd0000       .debug$S                   0000000180000000     kernel32:KERNEL32.dll
 0000:fffd0000       .debug$S                   0000000180000000     kernel32:KERNEL32.dll
 0000:fffd0000       .debug$S                   0000000180000000     kernel32:KERNEL32.dll
 0000:fffd0000       .debug$S                   0000000180000000     kernel32:KERNEL32.dll
 0000:fffd0000       .debug$S                   0000000180000000     kernel32:KERNEL32.dll
 0000:fffd0000       .debug$S                   0000000180000000     kernel32:KERNEL32.dll
 0000:fffd0000       .debug$S                   0000000180000000     kernel32:KERNEL32.dll
 0000:fffd0000       .debug$S                   0000000180000000     kernel32:KERNEL32.dll
 0000:fffd0000       .debug$S                   0000000180000000     kernel32:KERNEL32.dll
 0000:fffd0000       .debug$S                   0000000180000000     kernel32:KERNEL32.dll
 0000:fffd0000       .debug$S                   0000000180000000     kernel32:KERNEL32.dll
 0000:fffd0000       .debug$S                   0000000180000000     kernel32:KERNEL32.dll
 0000:fffd0000       .debug$S                   0000000180000000     kernel32:KERNEL32.dll
 0000:fffd0000       .debug$S                   0000000180000000     kernel32:KERNEL32.dll
 0000:fffd0000       .debug$S                   0000000180000000     kernel32:KERNEL32.dll
 0000:fffd0000       .debug$S                   0000000180000000     kernel32:KERNEL32.dll
 0000:fffd0000       .debug$S                   0000000180000000     kernel32:KERNEL32.dll
 0000:fffd0000       .debug$S                   0000000180000000     kernel32:KERNEL32.dll
 0000:fffd0000       .debug$S                   0000000180000000     kernel32:KERNEL32.dll
 0000:fffd0000       .debug$S                   0000000180000000     kernel32:KERNEL32.dll
 0000:fffd0000       .debug$S                   0000000180000000     kernel32:KERNEL32.dll
 0000:fffd0000       .debug$S                   0000000180000000     kernel32:KERNEL32.dll
 0000:fffd0000       .debug$S                   0000000180000000     kernel32:KERNEL32.dll
 0000:fffd0000       .debug$S                   0000000180000000     kernel32:KERNEL32.dll
 0000:fffd0000       .debug$S                   0000000180000000     kernel32:KERNEL32.dll
 0000:fffd0000       .debug$S                   0000000180000000     kernel32:KERNEL32.dll
 0000:fffd0000       .debug$S                   0000000180000000     kernel32:KERNEL32.dll
 0000:fffd0000       .debug$S                   0000000180000000     kernel32:KERNEL32.dll
 0000:fffd0000       .debug$S                   0000000180000000     kernel32:KERNEL32.dll
 0000:fffd0000       .debug$S                   0000000180000000     kernel32:KERNEL32.dll
 0000:fffd0000       .debug$S                   0000000180000000     kernel32:KERNEL32.dll
 0000:fffd0000       .debug$S                   0000000180000000     kernel32:KERNEL32.dll
 0000:fffd0000       .debug$S                   0000000180000000     kernel32:KERNEL32.dll
 0000:fffd0000       .debug$S                   0000000180000000     node:node.exe
 0000:fffd0000       .debug$S                   0000000180000000     kernel32:KERNEL32.dll
 0000:fffd0000       .debug$S                   0000000180000000     node:node.exe
 0000:fffd0000       .debug$S                   0000000180000000     kernel32:KERNEL32.dll
 0000:fffd0000       .debug$S                   0000000180000000     node:node.exe
 0000:fffd0000       .debug$S                   0000000180000000     kernel32:KERNEL32.dll
 0000:fffd0000       .debug$S                   0000000180000000     node:node.exe
 0000:fffd0000       .debug$S                   0000000180000000     kernel32:KERNEL32.dll
 0000:fffd0000       .debug$S                   0000000180000000     node:node.exe
 0000:fffd0000       .debug$S                   0000000180000000     kernel32:KERNEL32.dll
 0000:fffd0000       .debug$S                   0000000180000000     node:node.exe
 0000:fffd0000       .debug$S                   0000000180000000     kernel32:KERNEL32.dll
 0000:fffd0000       .debug$S                   0000000180000000     node:node.exe
 0000:fffd0000       .debug$S                   0000000180000000     kernel32:KERNEL32.dll
 0000:fffd0000       .debug$S                   0000000180000000     kernel32:KERNEL32.dll
 0000:fffd0000       .debug$S                   0000000180000000     node:node.exe
 0000:fffd0000       .debug$S                   0000000180000000     kernel32:KERNEL32.dll
 0000:fffd0000       .debug$S                   0000000180000000     node:node.exe
 0000:fffd0000       .debug$S                   0000000180000000     kernel32:KERNEL32.dll
 0000:fffd0000       .debug$S                   0000000180000000     node:node.exe
 0000:fffd0000       .debug$S                   0000000180000000     kernel32:KERNEL32.dll
 0000:fffd0000       .debug$S                   0000000180000000     kernel32:KERNEL32.dll
 0000:fffd0000       .debug$S                   0000000180000000     kernel32:KERNEL32.dll
 0000:fffd0000       .debug$S                   0000000180000000     kernel32:KERNEL32.dll
 0000:fffd0000       .debug$S                   0000000180000000     kernel32:KERNEL32.dll
 0000:fffd0000       .debug$S                   0000000180000000     node:node.exe
 0000:fffd0000       .debug$S                   0000000180000000     kernel32:KERNEL32.dll
 0000:fffd0000       .debug$S                   0000000180000000     kernel32:KERNEL32.dll
 0000:fffd0000       .debug$S                   0000000180000000     kernel32:KERNEL32.dll
 0000:fffd0000       .debug$S                   0000000180000000     kernel32:KERNEL32.dll
 0000:fffd0000       .debug$S                   0000000180000000     kernel32:KERNEL32.dll
 0000:fffd0000       .debug$S                   0000000180000000     kernel32:KERNEL32.dll
 0000:fffd0000       .debug$S                   0000000180000000     kernel32:KERNEL32.dll
 0000:fffd0000       .debug$S                   0000000180000000     kernel32:KERNEL32.dll
 0000:fffd0000       .debug$S                   0000000180000000     kernel32:KERNEL32.dll
 0000:fffd0000       .debug$S                   0000000180000000     kernel32:KERNEL32.dll
 0000:fffd0000       .debug$S                   0000000180000000     binding.exp
 0000:fffd0000       .debug$S                   0000000180000000     kernel32:KERNEL32.dll
 0000:fffd0000       .debug$S                   0000000180000000     kernel32:KERNEL32.dll
 0000:fffd0000       .debug$S                   0000000180000000     kernel32:KERNEL32.dll
 0000:fffd0000       .debug$S                   0000000180000000     node:node.exe
 0000:fffd0000       .debug$S                   0000000180000000     node:node.exe
 0000:fffd0000       .debug$S                   0000000180000000     node:node.exe
 0000:fffd0000       .debug$S                   0000000180000000     node:node.exe
 0000:fffd0000       .debug$S                   0000000180000000     node:node.exe
 0000:fffd0000       .debug$S                   0000000180000000     node:node.exe
 0000:fffd0000       .debug$S                   0000000180000000     node:node.exe
 0000:fffd0000       .debug$S                   0000000180000000     node:node.exe
 0000:fffd0000       .debug$S                   0000000180000000     node:node.exe
 0000:fffd0000       .debug$S                   0000000180000000     node:node.exe
 0000:fffd0000       .debug$S                   0000000180000000     node:node.exe
 0000:fffd0000       .debug$S                   0000000180000000     node:node.exe
 0000:fffd0000       .debug$S                   0000000180000000     node:node.exe
 0000:fffd0000       .debug$S                   0000000180000000     node:node.exe
 0000:fffd0000       .debug$S                   0000000180000000     node:node.exe
 0000:fffd0000       .debug$S                   0000000180000000     node:node.exe
 0000:fffd0000       .debug$S                   0000000180000000     node:node.exe
 0000:fffd0000       .debug$S                   0000000180000000     node:node.exe
 0000:fffd0000       .debug$S                   0000000180000000     node:node.exe
 0000:fffd0000       .debug$S                   0000000180000000     node:node.exe
 0000:fffd0000       .debug$S                   0000000180000000     node:node.exe
 0000:fffd0000       .debug$S                   0000000180000000     node:node.exe
 0000:fffd0000       .debug$S                   0000000180000000     node:node.exe
 0000:fffd0000       .debug$S                   0000000180000000     node:node.exe
 0000:fffd0000       .debug$S                   0000000180000000     node:node.exe
 0000:fffd0000       .debug$S                   0000000180000000     node:node.exe
 0000:fffd0000       .debug$S                   0000000180000000     node:node.exe
 0000:fffd0000       .debug$S                   0000000180000000     node:node.exe
 0000:fffd0000       .debug$S                   0000000180000000     node:node.exe
 0000:fffd0000       .debug$S                   0000000180000000     node:node.exe
 0000:fffd0000       .debug$S                   0000000180000000     node:node.exe
 0000:fffd0000       .debug$S                   0000000180000000     node:node.exe
 0000:fffd0000       .debug$S                   0000000180000000     node:node.exe
 0000:fffd0000       .debug$S                   0000000180000000     node:node.exe
 0000:fffd0000       .debug$S                   0000000180000000     node:node.exe
 0000:fffd0000       .debug$S                   0000000180000000     node:node.exe
 0000:fffd0000       .debug$S                   0000000180000000     node:node.exe
 0000:fffd0000       .debug$S                   0000000180000000     node:node.exe
 0000:fffd0000       .debug$S                   0000000180000000     node:node.exe
 0000:fffd0000       .debug$S                   0000000180000000     node:node.exe
 0000:fffd0000       .debug$S                   0000000180000000     node:node.exe
 0000:fffd0000       .debug$S                   0000000180000000     node:node.exe
 0000:fffd0000       .debug$S                   0000000180000000     node:node.exe
 0000:fffd0000       .debug$S                   0000000180000000     node:node.exe
 0000:fffd0000       .debug$S                   0000000180000000     node:node.exe
 0000:fffd0000       .debug$S                   0000000180000000     node:node.exe
 0000:fffd0000       .debug$S                   0000000180000000     node:node.exe
 0000:fffd0000       .debug$S                   0000000180000000     node:node.exe
 0000:fffd0000       .debug$S                   0000000180000000     node:node.exe
 0000:fffd0000       .debug$S                   0000000180000000     kernel32:KERNEL32.dll
 0001:00000080       ?FunctionCallbackWrapper@imp@Nan@@YAXAEBV?$FunctionCallbackInfo@VValue@v8@@@v8@@@Z 0000000180001080 f   binding.obj
 0001:00000360       ?GetInt64@?A0x8d67e32c@@YA_JV?$Local@VValue@v8@@@v8@@@Z 0000000180001360 f   binding.obj
 0001:000003f0       ?Address@?A0x8d67e32c@@YAXAEBV?$FunctionCallbackInfo@VValue@v8@@@Nan@@@Z 00000001800013f0 f   binding.obj
 0001:000004e0       ?HexAddress@?A0x8d67e32c@@YAXAEBV?$FunctionCallbackInfo@VValue@v8@@@Nan@@@Z 00000001800014e0 f   binding.obj
 0001:00000620       ?IsNull@?A0x8d67e32c@@YAXAEBV?$FunctionCallbackInfo@VValue@v8@@@Nan@@@Z 0000000180001620 f   binding.obj
 0001:000006f0       ?write_object_cb@?A0x8d67e32c@@YAXAEBV?$WeakCallbackInfo@X@Nan@@@Z 00000001800016f0 f   binding.obj
 0001:000006f0       ?wrap_pointer_cb@?A0x8d67e32c@@YAXPEADPEAX@Z 00000001800016f0 f   binding.obj
 0001:00000700       ?WrapPointer@?A0x8d67e32c@@YA?AV?$Local@VValue@v8@@@v8@@PEAD_K@Z 0000000180001700 f   binding.obj
 0001:000007e0       ?ReadObject@?A0x8d67e32c@@YAXAEBV?$FunctionCallbackInfo@VValue@v8@@@Nan@@@Z 00000001800017e0 f   binding.obj
 0001:000008d0       ?WriteObject@?A0x8d67e32c@@YAXAEBV?$FunctionCallbackInfo@VValue@v8@@@Nan@@@Z 00000001800018d0 f   binding.obj
 0001:00000a60       ?ReadPointer@?A0x8d67e32c@@YAXAEBV?$FunctionCallbackInfo@VValue@v8@@@Nan@@@Z 0000000180001a60 f   binding.obj
 0001:00000b80       ?WritePointer@?A0x8d67e32c@@YAXAEBV?$FunctionCallbackInfo@VValue@v8@@@Nan@@@Z 0000000180001b80 f   binding.obj
 0001:00000ce0       ?ReadInt64@?A0x8d67e32c@@YAXAEBV?$FunctionCallbackInfo@VValue@v8@@@Nan@@@Z 0000000180001ce0 f   binding.obj
 0001:00000e80       ?WriteInt64@?A0x8d67e32c@@YAXAEBV?$FunctionCallbackInfo@VValue@v8@@@Nan@@@Z 0000000180001e80 f   binding.obj
 0001:00001120       ?ReadUInt64@?A0x8d67e32c@@YAXAEBV?$FunctionCallbackInfo@VValue@v8@@@Nan@@@Z 0000000180002120 f   binding.obj
 0001:000012c0       ?WriteUInt64@?A0x8d67e32c@@YAXAEBV?$FunctionCallbackInfo@VValue@v8@@@Nan@@@Z 00000001800022c0 f   binding.obj
 0001:00001550       ?ReadCString@?A0x8d67e32c@@YAXAEBV?$FunctionCallbackInfo@VValue@v8@@@Nan@@@Z 0000000180002550 f   binding.obj
 0001:00001660       ?ReinterpretBuffer@?A0x8d67e32c@@YAXAEBV?$FunctionCallbackInfo@VValue@v8@@@Nan@@@Z 0000000180002660 f   binding.obj
 0001:00001780       ?ReinterpretBufferUntilZeros@?A0x8d67e32c@@YAXAEBV?$FunctionCallbackInfo@VValue@v8@@@Nan@@@Z 0000000180002780 f   binding.obj
 0001:00004020       _register_binding          0000000180005020 f   binding.obj
 0001:000043c0       ?load_exe_hook@@YAP6A_JXZIPEAUDelayLoadInfo@@@Z 00000001800053c0 f   win_delay_load_hook.obj
 0001:000046a0       $$000000                   00000001800056a0     LIBCMT:_amdsecgs_.obj
 0001:00004718       ?dllmain_crt_dispatch@@YAHQEAUHINSTANCE__@@KQEAX@Z 0000000180005718 f   LIBCMT:dll_dllmain.obj
 0001:00004768       ?dllmain_crt_process_attach@@YAHQEAUHINSTANCE__@@QEAX@Z 0000000180005768 f   LIBCMT:dll_dllmain.obj
 0001:00004884       ?dllmain_crt_process_detach@@YAH_N@Z 0000000180005884 f   LIBCMT:dll_dllmain.obj
 0001:00004914       ?dllmain_dispatch@@YAHQEAUHINSTANCE__@@KQEAX@Z 0000000180005914 f   LIBCMT:dll_dllmain.obj
 0001:00004c40       capture_current_context    0000000180005c40 f   LIBCMT:gs_report.obj
 0001:00004cb0       capture_previous_context   0000000180005cb0 f   LIBCMT:gs_report.obj
 0001:00005b80       $$000000                   0000000180006b80     libvcruntime:memset.obj
 0001:00005c7c       MsetTab                    0000000180006c7c     libvcruntime:memset.obj
 0001:00005d40       $$000000                   0000000180006d40     libvcruntime:_notify_.obj
 0001:00006124       ?try_get_function@@YAPEAXW4function_id@?A0xcc2f1bd3@@QEBDQEBW4module_id@2@2@Z 0000000180007124 f   libvcruntime:winapi_downlevel.obj
 0001:00006b00       $$000000                   0000000180007b00     libvcruntime:memcpy.obj
 0001:00006bb7       MoveSmall                  0000000180007bb7     libvcruntime:memcpy.obj
 0001:00007074       ??$BuildCatchObjectHelperInternal@$$CBU_s_HandlerType@@@@YAHPEAUEHExceptionRecord@@PEAXPEBU_s_HandlerType@@PEBU_s_CatchableType@@@Z 0000000180008074 f   libvcruntime:frame.obj
 0001:00007274       ??$BuildCatchObjectInternal@$$CBU_s_HandlerType@@@@YAXPEAUEHExceptionRecord@@PEAXPEBU_s_HandlerType@@PEBU_s_CatchableType@@@Z 0000000180008274 f   libvcruntime:frame.obj
 0001:00007334       ??$CatchIt@V__FrameHandler3@@@@YAXPEAUEHExceptionRecord@@PEA_KPEAU_CONTEXT@@PEAU_xDISPATCHER_CONTEXT@@PEBU_s_FuncInfo@@PEBU_s_HandlerType@@PEBU_s_CatchableType@@PEBU_s_TryBlockMapEntry@@H1EE@Z 0000000180008334 f   libvcruntime:frame.obj
 0001:00007404       ??$FindHandler@V__FrameHandler3@@@@YAXPEAUEHExceptionRecord@@PEA_KPEAU_CONTEXT@@PEAU_xDISPATCHER_CONTEXT@@PEBU_s_FuncInfo@@EH1@Z 0000000180008404 f   libvcruntime:frame.obj
 0001:00007868       ??$FindHandlerForForeignException@V__FrameHandler3@@@@YAXPEAUEHExceptionRecord@@PEA_KPEAU_CONTEXT@@PEAU_xDISPATCHER_CONTEXT@@PEBU_s_FuncInfo@@HH1@Z 0000000180008868 f   libvcruntime:frame.obj
 0001:00008070       ?ExFilterRethrow@@YAHPEAU_EXCEPTION_POINTERS@@PEAUEHExceptionRecord@@PEAH@Z 0000000180009070 f   libvcruntime:frame.obj
 0001:00008324       ?IsInExceptionSpec@@YAEPEAUEHExceptionRecord@@PEBU_s_ESTypeList@@@Z 0000000180009324 f   libvcruntime:frame.obj
 0001:000083fc       ?Is_bad_exception_allowed@@YAEPEBU_s_ESTypeList@@@Z 00000001800093fc f   libvcruntime:frame.obj
 0001:000084b0       $$000000                   00000001800094b0     libvcruntime:handlers.obj
 0001:0000940c       ??$?RV<lambda_0d412022a4b28cc8a401ea49574e8ae6>@@AEAV<lambda_a775ed57af18ba8e4d5dc780aa9068fe>@@V<lambda_975a71a6baa488a08f4e15f6b0339b9e>@@@?$__crt_seh_guarded_call@H@@QEAAH$$QEAV<lambda_0d412022a4b28cc8a401ea49574e8ae6>@@AEAV<lambda_a775ed57af18ba8e4d5dc780aa9068fe>@@$$QEAV<lambda_975a71a6baa488a08f4e15f6b0339b9e>@@@Z 000000018000a40c f   libucrt:output.obj
 0001:0000944c       ??$common_vsprintf@Vformat_validation_base@__crt_stdio_output@@D@@YAH_KQEAD0QEBDQEAU__crt_locale_pointers@@1@Z 000000018000a44c f   libucrt:output.obj
 0001:00009618       ??$common_vsprintf@Vstandard_base@__crt_stdio_output@@_W@@YAH_KQEA_W0QEB_WQEAU__crt_locale_pointers@@QEAD@Z 000000018000a618 f   libucrt:output.obj
 0001:00009d70       ??R<lambda_a775ed57af18ba8e4d5dc780aa9068fe>@@QEBAHXZ 000000018000ad70 f   libucrt:output.obj
 0001:0000c8f0       ??$common_assert_to_message_box@_W@@YAXQEB_W0IQEAX@Z 000000018000d8f0 f   libucrt:assert.obj
 0001:0000c9b4       ??$common_assert_to_message_box_build_string@_W@@YAXQEA_W_KQEB_W2IQEAX@Z 000000018000d9b4 f   libucrt:assert.obj
 0001:0000d178       ??$common_assert_to_stderr@_W@@YAXQEB_W0I@Z 000000018000e178 f   libucrt:assert.obj
 0001:0000d2e8       ?get_assert_format@@YAPEB_W_W@Z 000000018000e2e8 f   libucrt:assert.obj
 0001:0000d8a8       ??$?RV<lambda_d80eeec6fff315bfe5c115232f3240e3>@@AEAV<lambda_6e4b09c48022b2350581041d5f6b0c4c>@@V<lambda_2358e3775559c9db80273638284d5e45>@@@?$__crt_seh_guarded_call@X@@QEAAX$$QEAV<lambda_d80eeec6fff315bfe5c115232f3240e3>@@AEAV<lambda_6e4b09c48022b2350581041d5f6b0c4c>@@$$QEAV<lambda_2358e3775559c9db80273638284d5e45>@@@Z 000000018000e8a8 f   libucrt:exit.obj
 0001:0000d8e0       ??R<lambda_6e4b09c48022b2350581041d5f6b0c4c>@@QEBA@XZ 000000018000e8e0 f   libucrt:exit.obj
 0001:0000d9b8       ?atexit_exception_filter@@YAHK@Z 000000018000e9b8 f   libucrt:exit.obj
 0001:0000d9c4       ?common_exit@@YAXHW4_crt_exit_cleanup_mode@@W4_crt_exit_return_mode@@@Z 000000018000e9c4 f   libucrt:exit.obj
 0001:0000da80       ?exit_or_terminate_process@@YAXI@Z 000000018000ea80 f   libucrt:exit.obj
 0001:0000dacc       ?try_cor_exit_process@@YAXI@Z 000000018000eacc f   libucrt:exit.obj
 0001:0000db54       ??$parse_command_line@D@@YAXPEADPEAPEAD0PEA_K2@Z 000000018000eb54 f   libucrt:argv_parsing.obj
 0001:0000df00       ??$common_initialize_environment_nolock@D@@YAHXZ 000000018000ef00 f   libucrt:environment_initialization.obj
 0001:0000df6c       ??$create_environment@D@@YAQEAPEADQEAD@Z 000000018000ef6c f   libucrt:environment_initialization.obj
 0001:0000e074       ??$free_environment@_W@@YAXQEAPEA_W@Z 000000018000f074 f   libucrt:environment_initialization.obj
 0001:0000e074       ??$free_environment@D@@YAXQEAPEAD@Z 000000018000f074 f   libucrt:environment_initialization.obj
 0001:0000e0b8       ??$uninitialize_environment_internal@D@@YAXAEAPEAPEAD@Z 000000018000f0b8 f   libucrt:environment_initialization.obj
 0001:0000e0d4       ??$uninitialize_environment_internal@_W@@YAXAEAPEAPEA_W@Z 000000018000f0d4 f   libucrt:environment_initialization.obj
 0001:0000e130       ??$?RV<lambda_7777bce6b2f8c936911f934f8298dc43>@@AEAV<lambda_f03950bc5685219e0bcd2087efbe011e>@@V<lambda_3883c3dff614d5e0c5f61bb1ac94921c>@@@?$__crt_seh_guarded_call@H@@QEAAH$$QEAV<lambda_7777bce6b2f8c936911f934f8298dc43>@@AEAV<lambda_f03950bc5685219e0bcd2087efbe011e>@@$$QEAV<lambda_3883c3dff614d5e0c5f61bb1ac94921c>@@@Z 000000018000f130 f   libucrt:onexit.obj
 0001:0000e16c       ??R<lambda_f03950bc5685219e0bcd2087efbe011e>@@QEBAHXZ 000000018000f16c f   libucrt:onexit.obj
 0001:0000e334       initialize_global_variables 000000018000f334 f   libucrt:initialization.obj
 0001:0000e348       initialize_c               000000018000f348 f   libucrt:initialization.obj
 0001:0000e36c       report_memory_leaks        000000018000f36c f   libucrt:initialization.obj
 0001:0000e36c       initialize_global_state_isolation 000000018000f36c f   libucrt:initialization.obj
 0001:0000e36c       uninitialize_c             000000018000f36c f   libucrt:initialization.obj
 0001:0000e36c       initialize_environment     000000018000f36c f   libucrt:initialization.obj
 0001:0000e36c       uninitialize_global_state_isolation 000000018000f36c f   libucrt:initialization.obj
 0001:0000e370       uninitialize_environment   000000018000f370 f   libucrt:initialization.obj
 0001:0000e380       initialize_pointers        000000018000f380 f   libucrt:initialization.obj
 0001:0000e3d4       uninitialize_vcruntime     000000018000f3d4 f   libucrt:initialization.obj
 0001:0000e3dc       uninitialize_allocated_memory 000000018000f3dc f   libucrt:initialization.obj
 0001:0000e41c       uninitialize_allocated_io_buffers 000000018000f41c f   libucrt:initialization.obj
 0001:0000e590       $$000000                   000000018000f590     libucrt:strncmp.obj
 0001:0000eadc       ??$?RV<lambda_0ae27a3a962d80f24befdcbee591983d>@@AEAV<lambda_8d0ee55de4b1038c4002e0adecdf1839>@@V<lambda_dc504788e8f1664fe9b84e20bfb512f2>@@@?$__crt_seh_guarded_call@X@@QEAAX$$QEAV<lambda_0ae27a3a962d80f24befdcbee591983d>@@AEAV<lambda_8d0ee55de4b1038c4002e0adecdf1839>@@$$QEAV<lambda_dc504788e8f1664fe9b84e20bfb512f2>@@@Z 000000018000fadc f   libucrt:per_thread_data.obj
 0001:0000eb1c       ??$?RV<lambda_2d41944a1d46af3157314b8a01080d33>@@AEAV<lambda_8f455de75cd7d7f24b4096f044d8b9e6>@@V<lambda_aa500f224e6afead328df44964fe2772>@@@?$__crt_seh_guarded_call@X@@QEAAX$$QEAV<lambda_2d41944a1d46af3157314b8a01080d33>@@AEAV<lambda_8f455de75cd7d7f24b4096f044d8b9e6>@@$$QEAV<lambda_aa500f224e6afead328df44964fe2772>@@@Z 000000018000fb1c f   libucrt:per_thread_data.obj
 0001:0000eb5c       ??$?RV<lambda_aa87e3671a710a21b5dc78c0bdf72e11>@@AEAV<lambda_92619d2358a28f41a33ba319515a20b9>@@V<lambda_6992ecaafeb10aed2b74cb1fae11a551>@@@?$__crt_seh_guarded_call@X@@QEAAX$$QEAV<lambda_aa87e3671a710a21b5dc78c0bdf72e11>@@AEAV<lambda_92619d2358a28f41a33ba319515a20b9>@@$$QEAV<lambda_6992ecaafeb10aed2b74cb1fae11a551>@@@Z 000000018000fb5c f   libucrt:per_thread_data.obj
 0001:0000eba4       ??$?RV<lambda_f2e299630e499de9f9a165e60fcd3db5>@@AEAV<lambda_2ae9d31cdba2644fcbeaf08da7c24588>@@V<lambda_40d01ff24d0e7b3814fdbdcee8eab3c7>@@@?$__crt_seh_guarded_call@X@@QEAAX$$QEAV<lambda_f2e299630e499de9f9a165e60fcd3db5>@@AEAV<lambda_2ae9d31cdba2644fcbeaf08da7c24588>@@$$QEAV<lambda_40d01ff24d0e7b3814fdbdcee8eab3c7>@@@Z 000000018000fba4 f   libucrt:per_thread_data.obj
 0001:0000ec04       ?construct_ptd_array@@YAXQEAU__acrt_ptd@@@Z 000000018000fc04 f   libucrt:per_thread_data.obj
 0001:0000ecd4       ?destroy_fls@@YAXPEAX@Z    000000018000fcd4 f   libucrt:per_thread_data.obj
 0001:0000ecf4       ?destroy_ptd_array@@YAXQEAU__acrt_ptd@@@Z 000000018000fcf4 f   libucrt:per_thread_data.obj
 0001:0000edec       ?replace_current_thread_locale_nolock@@YAXQEAU__acrt_ptd@@QEAU__crt_locale_data@@@Z 000000018000fdec f   libucrt:per_thread_data.obj
 0001:0000f184       ??$?RV<lambda_410d79af7f07d98d83a3f525b3859a53>@@AEAV<lambda_3e16ef9562a7dcce91392c22ab16ea36>@@V<lambda_38119f0e861e05405d8a144b9b982f0a>@@@?$__crt_seh_guarded_call@X@@QEAAX$$QEAV<lambda_410d79af7f07d98d83a3f525b3859a53>@@AEAV<lambda_3e16ef9562a7dcce91392c22ab16ea36>@@$$QEAV<lambda_38119f0e861e05405d8a144b9b982f0a>@@@Z 0000000180010184 f   libucrt:wsetlocale.obj
 0001:0000f2a8       ?internal_isupper_l@@YA_NHQEAU__crt_locale_pointers@@@Z 00000001800102a8 f   libucrt:tolower_toupper.obj
 0001:0000fb48       ?fp_format_a@@YAHQEBNPEAD_KQEAD2H_NIQEAU__crt_locale_pointers@@@Z 0000000180010b48 f   libucrt:cvt.obj
 0001:0000feb0       ?fp_format_e@@YAHQEBNQEAD_K12H_NIQEAU__crt_locale_pointers@@@Z 0000000180010eb0 f   libucrt:cvt.obj
 0001:0000ff8c       ?fp_format_e_internal@@YAHQEAD_KH_NIQEAU_strflt@@2QEAU__crt_locale_pointers@@@Z 0000000180010f8c f   libucrt:cvt.obj
 0001:00010160       ?fp_format_f_internal@@YAHQEAD_KHQEAU_strflt@@_NQEAU__crt_locale_pointers@@@Z 0000000180011160 f   libucrt:cvt.obj
 0001:000102a4       ?fp_format_g@@YAHQEBNQEAD_K12H_NIQEAU__crt_locale_pointers@@@Z 00000001800112a4 f   libucrt:cvt.obj
 0001:000103d8       ?fp_format_nan_or_infinity@@YAHW4__acrt_fp_class@@_NPEAD_K1@Z 00000001800113d8 f   libucrt:cvt.obj
 0001:00010c24       ?initialize_inherited_file_handles_nolock@@YAXXZ 0000000180011c24 f   libucrt:ioinit.obj
 0001:00010d10       ?initialize_stdio_handles_nolock@@YAXXZ 0000000180011d10 f   libucrt:ioinit.obj
 0001:00010e90       ??$common_xtox@K_W@@YAHKQEA_W_KI_N@Z 0000000180011e90 f   libucrt:xtoa.obj
 0001:00010f54       ??$common_xtox_s@K_W@@YAHKQEA_W_KI_N@Z 0000000180011f54 f   libucrt:xtoa.obj
 0001:00011358       ??$?RV<lambda_842d9ff0dc9ef11c61343bbaebe7f885>@@AEAV<lambda_c5860995281e5c4ce005b3de8f5874ee>@@V<lambda_d90129c13df834fdcbf8d2b88dafcf2d>@@@?$__crt_seh_guarded_call@X@@QEAAX$$QEAV<lambda_842d9ff0dc9ef11c61343bbaebe7f885>@@AEAV<lambda_c5860995281e5c4ce005b3de8f5874ee>@@$$QEAV<lambda_d90129c13df834fdcbf8d2b88dafcf2d>@@@Z 0000000180012358 f   libucrt:fflush.obj
 0001:000113f4       ??$?RV<lambda_886d6c58226a84441f68b9f2b8217b83>@@AEAV<lambda_ab61a845afdef5b7c387490eaf3616ee>@@V<lambda_f7f22ab5edc0698d5f6905b0d3f44752>@@@?$__crt_seh_guarded_call@X@@QEAAX$$QEAV<lambda_886d6c58226a84441f68b9f2b8217b83>@@AEAV<lambda_ab61a845afdef5b7c387490eaf3616ee>@@$$QEAV<lambda_f7f22ab5edc0698d5f6905b0d3f44752>@@@Z 00000001800123f4 f   libucrt:fflush.obj
 0001:000114d4       ??$?RV<lambda_c376a267cfb53b6959b3b692ec76b120>@@AEAV<lambda_9a32fed5bf61b6b509b2d3f6003082a1>@@V<lambda_572fbb9fa0ab338edf41edfd4b5fcc8d>@@@?$__crt_seh_guarded_call@H@@QEAAH$$QEAV<lambda_c376a267cfb53b6959b3b692ec76b120>@@AEAV<lambda_9a32fed5bf61b6b509b2d3f6003082a1>@@$$QEAV<lambda_572fbb9fa0ab338edf41edfd4b5fcc8d>@@@Z 00000001800124d4 f   libucrt:fflush.obj
 0001:00011514       ?common_flush_all@@YAH_N@Z 0000000180012514 f   libucrt:fflush.obj
 0001:000116ac       ??$?RV<lambda_84ec643ea9557e2f7dc01bb0e9624395>@@AEAV<lambda_ca71763b3c0644891230e4f79ea54fa6>@@V<lambda_439a761618c59b0600e24586724d733b>@@@?$__crt_seh_guarded_call@H@@QEAAH$$QEAV<lambda_84ec643ea9557e2f7dc01bb0e9624395>@@AEAV<lambda_ca71763b3c0644891230e4f79ea54fa6>@@$$QEAV<lambda_439a761618c59b0600e24586724d733b>@@@Z 00000001800126ac f   libucrt:setvbuf.obj
 0001:000116ec       ??R<lambda_ca71763b3c0644891230e4f79ea54fa6>@@QEBAHXZ 00000001800126ec f   libucrt:setvbuf.obj
 0001:00011878       ??$?RV<lambda_450d765d439847d4c735a33c368b5fc0>@@AEAV<lambda_44731a7d0e6d81c3e6aa82d741081786>@@V<lambda_601a2a7da3b7a96e9554ac7215c4b07c>@@@?$__crt_seh_guarded_call@P6AXH@Z@@QEAAP6AXH@Z$$QEAV<lambda_450d765d439847d4c735a33c368b5fc0>@@AEAV<lambda_44731a7d0e6d81c3e6aa82d741081786>@@$$QEAV<lambda_601a2a7da3b7a96e9554ac7215c4b07c>@@@Z 0000000180012878 f   libucrt:signal.obj
 0001:00011c18       ?_mbstowcs_l_helper@@YA_KPEA_WPEBD_KPEAU__crt_locale_pointers@@@Z 0000000180012c18 f   libucrt:mbstowcs.obj
 0001:000120dc       ?<lambda_invoker_cdecl>@<lambda_c2303d2482d7c3675ea2e24c4cfb6115>@@CAHPEBX0@Z 00000001800130dc f   libucrt:argv_wildcards.obj
 0001:000120f0       ??$common_expand_argv_wildcards@D@@YAHQEAPEADQEAPEAPEAD@Z 00000001800130f0 f   libucrt:argv_wildcards.obj
 0001:000122fc       ??$copy_and_add_argument_to_buffer@D@@YAHQEBD0_KAEAV?$argument_list@D@?A0x5f5c8891@@@Z 00000001800132fc f   libucrt:argv_wildcards.obj
 0001:00012498       ??$expand_argument_wildcards@D@@YAHQEAD0AEAV?$argument_list@D@?A0x5f5c8891@@@Z 0000000180013498 f   libucrt:argv_wildcards.obj
 0001:0001264c       ??$?RV<lambda_efdfa57d1f175319df784efa44bb7b81>@@AEAV<lambda_5f0a4c1567f8adc6734073e5d1e1b35c>@@V<lambda_2e8a7d3640ea6ccb4c2413664c2db6fd>@@@?$__crt_seh_guarded_call@X@@QEAAX$$QEAV<lambda_efdfa57d1f175319df784efa44bb7b81>@@AEAV<lambda_5f0a4c1567f8adc6734073e5d1e1b35c>@@$$QEAV<lambda_2e8a7d3640ea6ccb4c2413664c2db6fd>@@@Z 000000018001364c f   libucrt:mbctype.obj
 0001:00012808       ?getSystemCP@@YAHH@Z       0000000180013808 f   libucrt:mbctype.obj
 0001:00012888       ?setSBCS@@YAXPEAU__crt_multibyte_data@@@Z 0000000180013888 f   libucrt:mbctype.obj
 0001:00012918       ?setSBUpLow@@YAXPEAU__crt_multibyte_data@@@Z 0000000180013918 f   libucrt:mbctype.obj
 0001:00012afc       ?setmbcp_internal@@YAHH_NQEAU__acrt_ptd@@QEAPEAU__crt_multibyte_data@@@Z 0000000180013afc f   libucrt:mbctype.obj
 0001:00012cc0       ?update_thread_multibyte_data_internal@@YAPEAU__crt_multibyte_data@@QEAU__acrt_ptd@@QEAPEAU1@@Z 0000000180013cc0 f   libucrt:mbctype.obj
 0001:000130ac       ?x_ismbbtype_l@@YAHPEAU__crt_locale_pointers@@IHH@Z 00000001800140ac f   libucrt:ismbbyte.obj
 0001:000133f8       ?try_get_function@@YAPEAXW4function_id@?A0x391cf84c@@QEBDQEBW4module_id@2@2@Z 00000001800143f8 f   libucrt:winapi_thunks.obj
 0001:000144c8       ?free_crt_array_internal@@YAXQEAPEBX_K@Z 00000001800154c8 f   libucrt:inittime.obj
 0001:00014624       ?__acrt_LCMapStringA_stat@@YAHPEAU__crt_locale_pointers@@PEB_WKPEBDHPEADHHH@Z 0000000180015624 f   libucrt:lcmapstringa.obj
 0001:000163e8       memcpy_s                   00000001800173e8 f   libucrt:cfout.obj
 0001:00016470       ??$write_buffer_nolock@D@@YA_NDV__crt_stdio_stream@@@Z 0000000180017470 f   libucrt:_flsbuf.obj
 0001:00016550       ??$write_buffer_nolock@_W@@YA_N_WV__crt_stdio_stream@@@Z 0000000180017550 f   libucrt:_flsbuf.obj
 0001:00016c68       ??$?RV<lambda_a37b2b86f63e897a80ea819b0eb08c01>@@AEAV<lambda_38ce7e780aa69e748d6df282ebc68efe>@@V<lambda_99fb1378e971ab6e7edea83e3a7a83a2>@@@?$__crt_seh_guarded_call@H@@QEAAH$$QEAV<lambda_a37b2b86f63e897a80ea819b0eb08c01>@@AEAV<lambda_38ce7e780aa69e748d6df282ebc68efe>@@$$QEAV<lambda_99fb1378e971ab6e7edea83e3a7a83a2>@@@Z 0000000180017c68 f   libucrt:commit.obj
 0001:00016d88       ?write_double_translated_ansi_nolock@@YA?AUwrite_result@?A0x17268360@@HQEBDI@Z 0000000180017d88 f   libucrt:write.obj
 0001:00016fa0       ?write_text_ansi_nolock@@YA?AUwrite_result@?A0x17268360@@HQEBDI@Z 0000000180017fa0 f   libucrt:write.obj
 0001:000170a4       ?write_text_utf16le_nolock@@YA?AUwrite_result@?A0x17268360@@HQEBDI@Z 00000001800180a4 f   libucrt:write.obj
 0001:000171c0       ?write_text_utf8_nolock@@YA?AUwrite_result@?A0x17268360@@HQEBDI@Z 00000001800181c0 f   libucrt:write.obj
 0001:00017ab0       fallbackMethod             0000000180018ab0 f   libucrt:strpbrk.obj
 0001:00017e74       $LN78                      0000000180018e74     libucrt:strpbrk.obj
 0001:00017eb0       $LN77                      0000000180018eb0     libucrt:strpbrk.obj
 0001:00017ef0       $LN76                      0000000180018ef0     libucrt:strpbrk.obj
 0001:00018378       ?initialize_multibyte@@YAHXZ 0000000180019378 f   libucrt:multibyte_initializer.obj
 0001:00018450       ?GetTableIndexFromLocaleName@@YAHPEB_W@Z 0000000180019450 f   libucrt:lcidtoname_downlevel.obj
 0001:000188f0       $$000000                   00000001800198f0     libucrt:log10.obj
 0001:00018e9c       ??$common_lseek@_J@@YA_JH_JH@Z 0000000180019e9c f   libucrt:lseek.obj
 0001:00018f8c       ??$common_lseek_nolock@_J@@YA_JH_JH@Z 0000000180019f8c f   libucrt:lseek.obj
 0001:000191c4       ?_wcstombs_l_helper@@YA_KPEADPEB_W_KPEAU__crt_locale_pointers@@@Z 000000018001a1c4 f   libucrt:wcstombs.obj
 0001:000198c8       _call_matherr              000000018001a8c8 f   libucrt:libm_error.obj
 0001:00019930       _exception_enabled         000000018001a930 f   libucrt:libm_error.obj
 0001:00019bc0       _log_special_common        000000018001abc0 f   libucrt:log_special.obj
 0001:00019c58       ??$?RV<lambda_751a882b2c74d4b022dec766aa51a29a>@@AEAV<lambda_628dfdc04ba53c8bfc02c9951375f3f5>@@V<lambda_f6c7be5f7998530c34de24c7437d6b54>@@@?$__crt_seh_guarded_call@H@@QEAAH$$QEAV<lambda_751a882b2c74d4b022dec766aa51a29a>@@AEAV<lambda_628dfdc04ba53c8bfc02c9951375f3f5>@@$$QEAV<lambda_f6c7be5f7998530c34de24c7437d6b54>@@@Z 000000018001ac58 f   libucrt:close.obj
 0001:0001a0a0       $$000000                   000000018001b0a0     libucrt:fpsr.obj
 0001:0001ae60       $$000000                   000000018001be60     LIBCMT:_chkstk_.obj
 0001:0001af50       $$000000                   000000018001bf50     libvcruntime:memcmp.obj
 0001:0001b180       $$000000                   000000018001c180     LIBCMT:_guard_dispatch_.obj
 0001:0001b1a0       ?fin$0@?0??dllmain_crt_process_attach@@YAHQEAUHINSTANCE__@@QEAX@Z@4HA 000000018001c1a0 f   LIBCMT:dll_dllmain.obj
 0001:0001b1b7       ?fin$0@?0??dllmain_crt_process_detach@@YAH_N@Z@4HA 000000018001c1b7 f   LIBCMT:dll_dllmain.obj
 0001:0001b1d3       ?filt$0@?0??dllmain_dispatch@@YAHQEAUHINSTANCE__@@KQEAX@Z@4HA 000000018001c1d3 f   LIBCMT:dll_dllmain.obj
 0001:0001b209       __scrt_is_nonwritable_in_current_image$filt$0 000000018001c209 f   LIBCMT:utility.obj
 0001:0001b221       __DestructExceptionObject$filt$0 000000018001c221 f   libvcruntime:ehhelpers.obj
 0001:0001b239       ?filt$0@?0???$_CallSETranslator@V__FrameHandler3@@@@YAHPEAUEHExceptionRecord@@PEA_KPEAU_CONTEXT@@PEAU_xDISPATCHER_CONTEXT@@PEBU_s_FuncInfo@@K1@Z@4HA 000000018001c239 f   libvcruntime:risctrnsctrl.obj
 0001:0001b2ca       ?filt$0@?0??CxxCallCatchBlock@__FrameHandler3@@SAPEAXPEAU_EXCEPTION_RECORD@@@Z@4HA 000000018001c2ca f   libvcruntime:frame.obj
 0001:0001b2ef       ?fin$1@?0??CxxCallCatchBlock@__FrameHandler3@@SAPEAXPEAU_EXCEPTION_RECORD@@@Z@4HA 000000018001c2ef f   libvcruntime:frame.obj
 0001:0001b367       ?filt$0@?0??FrameUnwindToState@__FrameHandler3@@SAXPEA_KPEAU_xDISPATCHER_CONTEXT@@PEBU_s_FuncInfo@@H@Z@4HA 000000018001c367 f   libvcruntime:frame.obj
 0001:0001b37d       ?fin$1@?0??FrameUnwindToState@__FrameHandler3@@SAXPEA_KPEAU_xDISPATCHER_CONTEXT@@PEBU_s_FuncInfo@@H@Z@4HA 000000018001c37d f   libvcruntime:frame.obj
 0001:0001b3a0       ?fin$0@?0???$?RV<lambda_c376a267cfb53b6959b3b692ec76b120>@@AEAV<lambda_9a32fed5bf61b6b509b2d3f6003082a1>@@V<lambda_572fbb9fa0ab338edf41edfd4b5fcc8d>@@@?$__crt_seh_guarded_call@H@@QEAAH$$QEAV<lambda_c376a267cfb53b6959b3b692ec76b120>@@AEAV<lambda_9a32fed5bf61b6b509b2d3f6003082a1>@@$$QEAV<lambda_572fbb9fa0ab338edf41edfd4b5fcc8d>@@@Z@4HA 000000018001c3a0 f   libucrt:fflush.obj
 0001:0001b3a0       ?fin$0@?0???$?RV<lambda_0d412022a4b28cc8a401ea49574e8ae6>@@AEAV<lambda_a775ed57af18ba8e4d5dc780aa9068fe>@@V<lambda_975a71a6baa488a08f4e15f6b0339b9e>@@@?$__crt_seh_guarded_call@H@@QEAAH$$QEAV<lambda_0d412022a4b28cc8a401ea49574e8ae6>@@AEAV<lambda_a775ed57af18ba8e4d5dc780aa9068fe>@@$$QEAV<lambda_975a71a6baa488a08f4e15f6b0339b9e>@@@Z@4HA 000000018001c3a0 f   libucrt:output.obj
 0001:0001b3a0       ?fin$0@?0???$?RV<lambda_84ec643ea9557e2f7dc01bb0e9624395>@@AEAV<lambda_ca71763b3c0644891230e4f79ea54fa6>@@V<lambda_439a761618c59b0600e24586724d733b>@@@?$__crt_seh_guarded_call@H@@QEAAH$$QEAV<lambda_84ec643ea9557e2f7dc01bb0e9624395>@@AEAV<lambda_ca71763b3c0644891230e4f79ea54fa6>@@$$QEAV<lambda_439a761618c59b0600e24586724d733b>@@@Z@4HA 000000018001c3a0 f   libucrt:setvbuf.obj
 0001:0001b3a0       ?fin$0@?0???$?RV<lambda_842d9ff0dc9ef11c61343bbaebe7f885>@@AEAV<lambda_c5860995281e5c4ce005b3de8f5874ee>@@V<lambda_d90129c13df834fdcbf8d2b88dafcf2d>@@@?$__crt_seh_guarded_call@X@@QEAAX$$QEAV<lambda_842d9ff0dc9ef11c61343bbaebe7f885>@@AEAV<lambda_c5860995281e5c4ce005b3de8f5874ee>@@$$QEAV<lambda_d90129c13df834fdcbf8d2b88dafcf2d>@@@Z@4HA 000000018001c3a0 f   libucrt:fflush.obj
 0001:0001b3bb       _query_new_handler$fin$0   000000018001c3bb f   libucrt:new_handler.obj
 0001:0001b3d1       ?fin$0@?0???$?RV<lambda_450d765d439847d4c735a33c368b5fc0>@@AEAV<lambda_44731a7d0e6d81c3e6aa82d741081786>@@V<lambda_601a2a7da3b7a96e9554ac7215c4b07c>@@@?$__crt_seh_guarded_call@P6AXH@Z@@QEAAP6AXH@Z$$QEAV<lambda_450d765d439847d4c735a33c368b5fc0>@@AEAV<lambda_44731a7d0e6d81c3e6aa82d741081786>@@$$QEAV<lambda_601a2a7da3b7a96e9554ac7215c4b07c>@@@Z@4HA 000000018001c3d1 f   libucrt:signal.obj
 0001:0001b3d1       ?fin$0@?0???$?RV<lambda_7777bce6b2f8c936911f934f8298dc43>@@AEAV<lambda_f03950bc5685219e0bcd2087efbe011e>@@V<lambda_3883c3dff614d5e0c5f61bb1ac94921c>@@@?$__crt_seh_guarded_call@H@@QEAAH$$QEAV<lambda_7777bce6b2f8c936911f934f8298dc43>@@AEAV<lambda_f03950bc5685219e0bcd2087efbe011e>@@$$QEAV<lambda_3883c3dff614d5e0c5f61bb1ac94921c>@@@Z@4HA 000000018001c3d1 f   libucrt:onexit.obj
 0001:0001b3d1       ?fin$0@?0???$?RV<lambda_0ae27a3a962d80f24befdcbee591983d>@@AEAV<lambda_8d0ee55de4b1038c4002e0adecdf1839>@@V<lambda_dc504788e8f1664fe9b84e20bfb512f2>@@@?$__crt_seh_guarded_call@X@@QEAAX$$QEAV<lambda_0ae27a3a962d80f24befdcbee591983d>@@AEAV<lambda_8d0ee55de4b1038c4002e0adecdf1839>@@$$QEAV<lambda_dc504788e8f1664fe9b84e20bfb512f2>@@@Z@4HA 000000018001c3d1 f   libucrt:per_thread_data.obj
 0001:0001b3d1       ?fin$0@?0???$?RV<lambda_d80eeec6fff315bfe5c115232f3240e3>@@AEAV<lambda_6e4b09c48022b2350581041d5f6b0c4c>@@V<lambda_2358e3775559c9db80273638284d5e45>@@@?$__crt_seh_guarded_call@X@@QEAAX$$QEAV<lambda_d80eeec6fff315bfe5c115232f3240e3>@@AEAV<lambda_6e4b09c48022b2350581041d5f6b0c4c>@@$$QEAV<lambda_2358e3775559c9db80273638284d5e45>@@@Z@4HA 000000018001c3d1 f   libucrt:exit.obj
 0001:0001b3d1       ?fin$0@?0???$?RV<lambda_efdfa57d1f175319df784efa44bb7b81>@@AEAV<lambda_5f0a4c1567f8adc6734073e5d1e1b35c>@@V<lambda_2e8a7d3640ea6ccb4c2413664c2db6fd>@@@?$__crt_seh_guarded_call@X@@QEAAX$$QEAV<lambda_efdfa57d1f175319df784efa44bb7b81>@@AEAV<lambda_5f0a4c1567f8adc6734073e5d1e1b35c>@@$$QEAV<lambda_2e8a7d3640ea6ccb4c2413664c2db6fd>@@@Z@4HA 000000018001c3d1 f   libucrt:mbctype.obj
 0001:0001b3d1       ?fin$0@?0???$?RV<lambda_f2e299630e499de9f9a165e60fcd3db5>@@AEAV<lambda_2ae9d31cdba2644fcbeaf08da7c24588>@@V<lambda_40d01ff24d0e7b3814fdbdcee8eab3c7>@@@?$__crt_seh_guarded_call@X@@QEAAX$$QEAV<lambda_f2e299630e499de9f9a165e60fcd3db5>@@AEAV<lambda_2ae9d31cdba2644fcbeaf08da7c24588>@@$$QEAV<lambda_40d01ff24d0e7b3814fdbdcee8eab3c7>@@@Z@4HA 000000018001c3d1 f   libucrt:per_thread_data.obj
 0001:0001b3d1       ?fin$0@?0???$?RV<lambda_2d41944a1d46af3157314b8a01080d33>@@AEAV<lambda_8f455de75cd7d7f24b4096f044d8b9e6>@@V<lambda_aa500f224e6afead328df44964fe2772>@@@?$__crt_seh_guarded_call@X@@QEAAX$$QEAV<lambda_2d41944a1d46af3157314b8a01080d33>@@AEAV<lambda_8f455de75cd7d7f24b4096f044d8b9e6>@@$$QEAV<lambda_aa500f224e6afead328df44964fe2772>@@@Z@4HA 000000018001c3d1 f   libucrt:per_thread_data.obj
 0001:0001b3d1       ?fin$0@?0???$?RV<lambda_aa87e3671a710a21b5dc78c0bdf72e11>@@AEAV<lambda_92619d2358a28f41a33ba319515a20b9>@@V<lambda_6992ecaafeb10aed2b74cb1fae11a551>@@@?$__crt_seh_guarded_call@X@@QEAAX$$QEAV<lambda_aa87e3671a710a21b5dc78c0bdf72e11>@@AEAV<lambda_92619d2358a28f41a33ba319515a20b9>@@$$QEAV<lambda_6992ecaafeb10aed2b74cb1fae11a551>@@@Z@4HA 000000018001c3d1 f   libucrt:per_thread_data.obj
 0001:0001b3eb       ?filt$0@?0???R<lambda_6e4b09c48022b2350581041d5f6b0c4c>@@QEBA@XZ@4HA 000000018001c3eb f   libucrt:exit.obj
 0001:0001b406       ?fin$0@?0???$?RV<lambda_410d79af7f07d98d83a3f525b3859a53>@@AEAV<lambda_3e16ef9562a7dcce91392c22ab16ea36>@@V<lambda_38119f0e861e05405d8a144b9b982f0a>@@@?$__crt_seh_guarded_call@X@@QEAAX$$QEAV<lambda_410d79af7f07d98d83a3f525b3859a53>@@AEAV<lambda_3e16ef9562a7dcce91392c22ab16ea36>@@$$QEAV<lambda_38119f0e861e05405d8a144b9b982f0a>@@@Z@4HA 000000018001c406 f   libucrt:wsetlocale.obj
 0001:0001b420       __acrt_lowio_ensure_fh_exists$fin$0 000000018001c420 f   libucrt:osfinfo.obj
 0001:0001b420       __acrt_initialize_lowio$fin$0 000000018001c420 f   libucrt:ioinit.obj
 0001:0001b439       ?fin$0@?0???$?RV<lambda_886d6c58226a84441f68b9f2b8217b83>@@AEAV<lambda_ab61a845afdef5b7c387490eaf3616ee>@@V<lambda_f7f22ab5edc0698d5f6905b0d3f44752>@@@?$__crt_seh_guarded_call@X@@QEAAX$$QEAV<lambda_886d6c58226a84441f68b9f2b8217b83>@@AEAV<lambda_ab61a845afdef5b7c387490eaf3616ee>@@$$QEAV<lambda_f7f22ab5edc0698d5f6905b0d3f44752>@@@Z@4HA 000000018001c439 f   libucrt:fflush.obj
 0001:0001b456       raise$fin$0                000000018001c456 f   libucrt:signal.obj
 0001:0001b477       ?fin$0@?0??update_thread_multibyte_data_internal@@YAPEAU__crt_multibyte_data@@QEAU__acrt_ptd@@QEAPEAU1@@Z@4HA 000000018001c477 f   libucrt:mbctype.obj
 0001:0001b490       __acrt_update_thread_locale_data$fin$0 000000018001c490 f   libucrt:locale_refcounting.obj
 0001:0001b4a9       _fcloseall$fin$0           000000018001c4a9 f   libucrt:closeall.obj
 0001:0001b4c2       ?fin$0@?0???$?RV<lambda_751a882b2c74d4b022dec766aa51a29a>@@AEAV<lambda_628dfdc04ba53c8bfc02c9951375f3f5>@@V<lambda_f6c7be5f7998530c34de24c7437d6b54>@@@?$__crt_seh_guarded_call@H@@QEAAH$$QEAV<lambda_751a882b2c74d4b022dec766aa51a29a>@@AEAV<lambda_628dfdc04ba53c8bfc02c9951375f3f5>@@$$QEAV<lambda_f6c7be5f7998530c34de24c7437d6b54>@@@Z@4HA 000000018001c4c2 f   libucrt:close.obj
 0001:0001b4c2       ?fin$0@?0???$?RV<lambda_a37b2b86f63e897a80ea819b0eb08c01>@@AEAV<lambda_38ce7e780aa69e748d6df282ebc68efe>@@V<lambda_99fb1378e971ab6e7edea83e3a7a83a2>@@@?$__crt_seh_guarded_call@H@@QEAAH$$QEAV<lambda_a37b2b86f63e897a80ea819b0eb08c01>@@AEAV<lambda_38ce7e780aa69e748d6df282ebc68efe>@@$$QEAV<lambda_99fb1378e971ab6e7edea83e3a7a83a2>@@@Z@4HA 000000018001c4c2 f   libucrt:commit.obj
 0001:0001b4dc       _write$fin$0               000000018001c4dc f   libucrt:write.obj
 0001:0001b4dc       ?fin$0@?0???$common_lseek@_J@@YA_JH_JH@Z@4HA 000000018001c4dc f   libucrt:lseek.obj
 0001:0001b4f3       fclose$fin$0               000000018001c4f3 f   libucrt:fclose.obj
 0001:0001b50b       ?dtor$0@?0??_wcstombs_l_helper@@YA_KPEADPEB_W_KPEAU__crt_locale_pointers@@@Z@4HA 000000018001c50b f   libucrt:wcstombs.obj
 0001:0001b517       _ctrlfp$filt$0             000000018001c517 f   libucrt:fpctrl.obj
 0001:0001b550       _IsNonwritableInCurrentImage$filt$0 000000018001c550 f   LIBCMT:pesect.obj
 0002:000002f8       GS_ExceptionPointers       000000018001d2f8     LIBCMT:gs_report.obj
 0002:000003a0       ?ExceptionTemplate@?1??_CxxThrowException@@9@4UEHExceptionRecord@@B 000000018001d3a0     libvcruntime:throw.obj
 0002:000003f0       ?tokenTable@@3QBQEBDB      000000018001d3f0     libvcruntime:undname.obj
 0002:00000470       ?nameTable@@3QBQEBDB       000000018001d470     libvcruntime:undname.obj
 0002:00000700       ?rttiTable@@3QBQEBDB       000000018001d700     libvcruntime:undname.obj
 0002:00000db8       ?module_names@?A0xcc2f1bd3@@3QBQEB_WB 000000018001ddb8     libvcruntime:winapi_downlevel.obj
 0002:00000e88       ?candidate_modules@?1??try_get_FlsAlloc@@YAP6AKP6AXPEAX@Z@ZXZ@4QBW4module_id@?A0xcc2f1bd3@@B 000000018001de88     libvcruntime:winapi_downlevel.obj
 0002:00000ea0       ?candidate_modules@?1??try_get_FlsFree@@YAP6AHK@ZXZ@4QBW4module_id@?A0xcc2f1bd3@@B 000000018001dea0     libvcruntime:winapi_downlevel.obj
 0002:00000eb0       ?candidate_modules@?1??try_get_FlsGetValue@@YAP6APEAXK@ZXZ@4QBW4module_id@?A0xcc2f1bd3@@B 000000018001deb0     libvcruntime:winapi_downlevel.obj
 0002:00000ec8       ?candidate_modules@?1??try_get_FlsSetValue@@YAP6AHKPEAX@ZXZ@4QBW4module_id@?A0xcc2f1bd3@@B 000000018001dec8     libvcruntime:winapi_downlevel.obj
 0002:00000ee0       ?candidate_modules@?1??try_get_InitializeCriticalSectionEx@@YAP6AHPEAU_RTL_CRITICAL_SECTION@@KK@ZXZ@4QBW4module_id@?A0xcc2f1bd3@@B 000000018001dee0     libvcruntime:winapi_downlevel.obj
 0002:00000f10       ?ExceptionTemplate@?1??UnwindNestedFrames@__FrameHandler3@@SAXPEA_KPEAUEHExceptionRecord@@PEAU_CONTEXT@@0PEAXPEBU_s_FuncInfo@@HHPEBU_s_HandlerType@@PEAU_xDISPATCHER_CONTEXT@@E@Z@4U_EXCEPTION_RECORD@@B 000000018001df10     libvcruntime:risctrnsctrl.obj
 0002:000010b0       ?errtable@@3QBUerrentry@?A0x31fdb9ec@@B 000000018001e0b0     libucrt:errno.obj
 0002:00001630       __acrt_initializers        000000018001e630     libucrt:initialization.obj
 0002:00002b20       ?_mb_locale_names@@3QBQEB_WB 000000018001fb20     libucrt:mbctype.obj
 0002:00002b80       ?module_names@?A0x391cf84c@@3QBQEB_WB 000000018001fb80     libucrt:winapi_thunks.obj
 0002:00003128       ?candidate_modules@?1??try_get_FlsAlloc@@YAP6AKP6AXPEAX@Z@ZXZ@4QBW4module_id@?A0x391cf84c@@B 0000000180020128     libucrt:winapi_thunks.obj
 0002:00003140       ?candidate_modules@?1??try_get_FlsFree@@YAP6AHK@ZXZ@4QBW4module_id@?A0x391cf84c@@B 0000000180020140     libucrt:winapi_thunks.obj
 0002:00003150       ?candidate_modules@?1??try_get_FlsGetValue@@YAP6APEAXK@ZXZ@4QBW4module_id@?A0x391cf84c@@B 0000000180020150     libucrt:winapi_thunks.obj
 0002:00003168       ?candidate_modules@?1??try_get_FlsSetValue@@YAP6AHKPEAX@ZXZ@4QBW4module_id@?A0x391cf84c@@B 0000000180020168     libucrt:winapi_thunks.obj
 0002:00003180       ?candidate_modules@?1??try_get_GetActiveWindow@@YAP6APEAUHWND__@@XZXZ@4QBW4module_id@?A0x391cf84c@@B 0000000180020180     libucrt:winapi_thunks.obj
 0002:00003198       ?candidate_modules@?1??try_get_GetLastActivePopup@@YAP6APEAUHWND__@@PEAU2@@ZXZ@4QBW4module_id@?A0x391cf84c@@B 0000000180020198     libucrt:winapi_thunks.obj
 0002:000031b8       ?candidate_modules@?1??try_get_GetProcessWindowStation@@YAP6APEAUHWINSTA__@@XZXZ@4QBW4module_id@?A0x391cf84c@@B 00000001800201b8     libucrt:winapi_thunks.obj
 0002:000031d8       ?candidate_modules@?1??try_get_GetUserObjectInformationW@@YAP6AHPEAXH0KPEAK@ZXZ@4QBW4module_id@?A0x391cf84c@@B 00000001800201d8     libucrt:winapi_thunks.obj
 0002:00003200       ?candidate_modules@?1??try_get_InitializeCriticalSectionEx@@YAP6AHPEAU_RTL_CRITICAL_SECTION@@KK@ZXZ@4QBW4module_id@?A0x391cf84c@@B 0000000180020200     libucrt:winapi_thunks.obj
 0002:00003228       ?candidate_modules@?1??try_get_LCMapStringEx@@YAP6AHPEB_WK0HPEA_WHPEAU_nlsversioninfo@@PEAX_J@ZXZ@4QBW4module_id@?A0x391cf84c@@B 0000000180020228     libucrt:winapi_thunks.obj
 0002:00003240       ?candidate_modules@?1??try_get_LocaleNameToLCID@@YAP6AKPEB_WK@ZXZ@4QBW4module_id@?A0x391cf84c@@B 0000000180020240     libucrt:winapi_thunks.obj
 0002:00003260       ?candidate_modules@?1??try_get_MessageBoxA@@YAP6AHPEAUHWND__@@PEBD1I@ZXZ@4QBW4module_id@?A0x391cf84c@@B 0000000180020260     libucrt:winapi_thunks.obj
 0002:00003278       ?candidate_modules@?1??try_get_MessageBoxW@@YAP6AHPEAUHWND__@@PEB_W1I@ZXZ@4QBW4module_id@?A0x391cf84c@@B 0000000180020278     libucrt:winapi_thunks.obj
 0002:0000328c       ?candidate_modules@?1??try_get_AppPolicyGetProcessTerminationMethod@@YAP6AJPEAXPEAW4AppPolicyProcessTerminationMethod@@@ZXZ@4QBW4module_id@?A0x391cf84c@@B 000000018002028c     libucrt:winapi_thunks.obj
 0002:000032b8       ?candidate_modules@?1??try_get_AppPolicyGetShowDeveloperDiagnostic@@YAP6AJPEAXPEAW4AppPolicyShowDeveloperDiagnostic@@@ZXZ@4QBW4module_id@?A0x391cf84c@@B 00000001800202b8     libucrt:winapi_thunks.obj
 0002:000032e4       ?candidate_modules@?1??try_get_AppPolicyGetWindowingModel@@YAP6AJPEAXPEAW4AppPolicyWindowingModel@@@ZXZ@4QBW4module_id@?A0x391cf84c@@B 00000001800202e4     libucrt:winapi_thunks.obj
 0002:00003d00       ?LcidToLocaleNameTable@?A0x881e4c05@@3QBULcidToLocaleName@1@B 0000000180020d00     libucrt:lcidtoname_downlevel.obj
 0002:00005760       ?LocaleNameToIndexTable@?A0x881e4c05@@3QBULocaleNameIndex@1@B 0000000180022760     libucrt:lcidtoname_downlevel.obj
 0002:00007000       __real_ninf                0000000180024000     libucrt:log10.obj
 0002:00007010       __real_inf                 0000000180024010     libucrt:log10.obj
 0002:00007020       __real_neg_qnan            0000000180024020     libucrt:log10.obj
 0002:00007030       __real_qnanbit             0000000180024030     libucrt:log10.obj
 0002:00007040       __int_1023                 0000000180024040     libucrt:log10.obj
 0002:00007050       __mask_001                 0000000180024050     libucrt:log10.obj
 0002:00007060       __mask_mant                0000000180024060     libucrt:log10.obj
 0002:00007070       __mask_mant_top8           0000000180024070     libucrt:log10.obj
 0002:00007080       __mask_mant9               0000000180024080     libucrt:log10.obj
 0002:00007090       __real_log10_e             0000000180024090     libucrt:log10.obj
 0002:000070a0       __real_log10_e_lead        00000001800240a0     libucrt:log10.obj
 0002:000070b0       __real_log10_e_tail        00000001800240b0     libucrt:log10.obj
 0002:000070c0       __real_log10_2_lead        00000001800240c0     libucrt:log10.obj
 0002:000070d0       __real_log10_2_tail        00000001800240d0     libucrt:log10.obj
 0002:000070e0       __real_two                 00000001800240e0     libucrt:log10.obj
 0002:000070f0       __real_one                 00000001800240f0     libucrt:log10.obj
 0002:00007100       __real_half                0000000180024100     libucrt:log10.obj
 0002:00007110       __mask_100                 0000000180024110     libucrt:log10.obj
 0002:00007120       __real_1_over_512          0000000180024120     libucrt:log10.obj
 0002:00007130       __real_1_over_2            0000000180024130     libucrt:log10.obj
 0002:00007140       __real_1_over_3            0000000180024140     libucrt:log10.obj
 0002:00007150       __real_1_over_4            0000000180024150     libucrt:log10.obj
 0002:00007160       __real_1_over_5            0000000180024160     libucrt:log10.obj
 0002:00007170       __real_1_over_6            0000000180024170     libucrt:log10.obj
 0002:00007180       __real_neg_1023            0000000180024180     libucrt:log10.obj
 0002:00007190       __mask_2045                0000000180024190     libucrt:log10.obj
 0002:000071a0       __real_threshold           00000001800241a0     libucrt:log10.obj
 0002:000071b0       __real_near_one_lt         00000001800241b0     libucrt:log10.obj
 0002:000071c0       __real_near_one_gt         00000001800241c0     libucrt:log10.obj
 0002:000071d0       __real_min_norm            00000001800241d0     libucrt:log10.obj
 0002:000071e0       __real_notsign             00000001800241e0     libucrt:log10.obj
 0002:000071f0       __real_ca1                 00000001800241f0     libucrt:log10.obj
 0002:00007200       __real_ca2                 0000000180024200     libucrt:log10.obj
 0002:00007210       __real_ca3                 0000000180024210     libucrt:log10.obj
 0002:00007220       __real_ca4                 0000000180024220     libucrt:log10.obj
 0002:00007230       __mask_lower               0000000180024230     libucrt:log10.obj
 0002:00007240       __flag_x_zero              0000000180024240     libucrt:log10.obj
 0002:00007244       __flag_x_neg               0000000180024244     libucrt:log10.obj
 0002:00007248       __flag_x_nan               0000000180024248     libucrt:log10.obj
 0002:00007250       $cppxdata$?_wcstombs_l_helper@@YA_KPEADPEB_W_KPEAU__crt_locale_pointers@@@Z 0000000180024250     libucrt:wcstombs.obj
 0002:00008ad0       __real@433fffffffffffff    0000000180025ad0     libucrt:fpsr.obj
 0002:00008ad8       __real@c33fffffffffffff    0000000180025ad8     libucrt:fpsr.obj
 0002:00009b78       $unwind$_snprintf_s        0000000180026b78     binding.obj
 0002:00009b88       $unwind$?FunctionCallbackWrapper@imp@Nan@@YAXAEBV?$FunctionCallbackInfo@VValue@v8@@@v8@@@Z 0000000180026b88     binding.obj
 0002:00009b9c       $unwind$?ForceSet@Nan@@YA?AV?$Maybe@_N@1@V?$Local@VObject@v8@@@v8@@V?$Local@VValue@v8@@@4@1W4PropertyAttribute@4@@Z 0000000180026b9c     binding.obj
 0002:00009bb0       $unwind$?GetInt64@?A0x8d67e32c@@YA_JV?$Local@VValue@v8@@@v8@@@Z 0000000180026bb0     binding.obj
 0002:00009bb0       $unwind$?ThrowError@Nan@@YAXPEBD@Z 0000000180026bb0     binding.obj
 0002:00009bb0       $unwind$?ThrowTypeError@Nan@@YAXPEBD@Z 0000000180026bb0     binding.obj
 0002:00009bb8       $chain$0$?GetInt64@?A0x8d67e32c@@YA_JV?$Local@VValue@v8@@@v8@@@Z 0000000180026bb8     binding.obj
 0002:00009bcc       $chain$1$?GetInt64@?A0x8d67e32c@@YA_JV?$Local@VValue@v8@@@v8@@@Z 0000000180026bcc     binding.obj
 0002:00009bdc       $unwind$?ReadCString@?A0x8d67e32c@@YAXAEBV?$FunctionCallbackInfo@VValue@v8@@@Nan@@@Z 0000000180026bdc     binding.obj
 0002:00009bdc       $unwind$?Address@?A0x8d67e32c@@YAXAEBV?$FunctionCallbackInfo@VValue@v8@@@Nan@@@Z 0000000180026bdc     binding.obj
 0002:00009be8       $chain$1$?Address@?A0x8d67e32c@@YAXAEBV?$FunctionCallbackInfo@VValue@v8@@@Nan@@@Z 0000000180026be8     binding.obj
 0002:00009c00       $chain$2$?Address@?A0x8d67e32c@@YAXAEBV?$FunctionCallbackInfo@VValue@v8@@@Nan@@@Z 0000000180026c00     binding.obj
 0002:00009c14       $chain$3$?Address@?A0x8d67e32c@@YAXAEBV?$FunctionCallbackInfo@VValue@v8@@@Nan@@@Z 0000000180026c14     binding.obj
 0002:00009c24       $unwind$?HexAddress@?A0x8d67e32c@@YAXAEBV?$FunctionCallbackInfo@VValue@v8@@@Nan@@@Z 0000000180026c24     binding.obj
 0002:00009c38       $chain$0$?HexAddress@?A0x8d67e32c@@YAXAEBV?$FunctionCallbackInfo@VValue@v8@@@Nan@@@Z 0000000180026c38     binding.obj
 0002:00009c4c       $chain$1$?HexAddress@?A0x8d67e32c@@YAXAEBV?$FunctionCallbackInfo@VValue@v8@@@Nan@@@Z 0000000180026c4c     binding.obj
 0002:00009c5c       $unwind$?ReadObject@?A0x8d67e32c@@YAXAEBV?$FunctionCallbackInfo@VValue@v8@@@Nan@@@Z 0000000180026c5c     binding.obj
 0002:00009c5c       $unwind$?IsNull@?A0x8d67e32c@@YAXAEBV?$FunctionCallbackInfo@VValue@v8@@@Nan@@@Z 0000000180026c5c     binding.obj
 0002:00009c68       $chain$0$?IsNull@?A0x8d67e32c@@YAXAEBV?$FunctionCallbackInfo@VValue@v8@@@Nan@@@Z 0000000180026c68     binding.obj
 0002:00009c7c       $chain$1$?IsNull@?A0x8d67e32c@@YAXAEBV?$FunctionCallbackInfo@VValue@v8@@@Nan@@@Z 0000000180026c7c     binding.obj
 0002:00009c8c       $unwind$?WrapPointer@?A0x8d67e32c@@YA?AV?$Local@VValue@v8@@@v8@@PEAD_K@Z 0000000180026c8c     binding.obj
 0002:00009ca0       $chain$0$?ReadObject@?A0x8d67e32c@@YAXAEBV?$FunctionCallbackInfo@VValue@v8@@@Nan@@@Z 0000000180026ca0     binding.obj
 0002:00009cb4       $chain$1$?ReadObject@?A0x8d67e32c@@YAXAEBV?$FunctionCallbackInfo@VValue@v8@@@Nan@@@Z 0000000180026cb4     binding.obj
 0002:00009cc4       $unwind$?WriteObject@?A0x8d67e32c@@YAXAEBV?$FunctionCallbackInfo@VValue@v8@@@Nan@@@Z 0000000180026cc4     binding.obj
 0002:00009cdc       $unwind$?ReinterpretBuffer@?A0x8d67e32c@@YAXAEBV?$FunctionCallbackInfo@VValue@v8@@@Nan@@@Z 0000000180026cdc     binding.obj
 0002:00009cdc       $unwind$?ReadPointer@?A0x8d67e32c@@YAXAEBV?$FunctionCallbackInfo@VValue@v8@@@Nan@@@Z 0000000180026cdc     binding.obj
 0002:00009ce8       $chain$1$?ReadPointer@?A0x8d67e32c@@YAXAEBV?$FunctionCallbackInfo@VValue@v8@@@Nan@@@Z 0000000180026ce8     binding.obj
 0002:00009d00       $chain$6$?ReadPointer@?A0x8d67e32c@@YAXAEBV?$FunctionCallbackInfo@VValue@v8@@@Nan@@@Z 0000000180026d00     binding.obj
 0002:00009d00       $chain$4$?ReadPointer@?A0x8d67e32c@@YAXAEBV?$FunctionCallbackInfo@VValue@v8@@@Nan@@@Z 0000000180026d00     binding.obj
 0002:00009d00       $chain$2$?ReadPointer@?A0x8d67e32c@@YAXAEBV?$FunctionCallbackInfo@VValue@v8@@@Nan@@@Z 0000000180026d00     binding.obj
 0002:00009d14       $unwind$?WritePointer@?A0x8d67e32c@@YAXAEBV?$FunctionCallbackInfo@VValue@v8@@@Nan@@@Z 0000000180026d14     binding.obj
 0002:00009d28       $chain$1$?WritePointer@?A0x8d67e32c@@YAXAEBV?$FunctionCallbackInfo@VValue@v8@@@Nan@@@Z 0000000180026d28     binding.obj
 0002:00009d3c       $chain$2$?WritePointer@?A0x8d67e32c@@YAXAEBV?$FunctionCallbackInfo@VValue@v8@@@Nan@@@Z 0000000180026d3c     binding.obj
 0002:00009d4c       $unwind$?ReadInt64@?A0x8d67e32c@@YAXAEBV?$FunctionCallbackInfo@VValue@v8@@@Nan@@@Z 0000000180026d4c     binding.obj
 0002:00009d4c       $unwind$?ReadUInt64@?A0x8d67e32c@@YAXAEBV?$FunctionCallbackInfo@VValue@v8@@@Nan@@@Z 0000000180026d4c     binding.obj
 0002:00009d64       $chain$0$?ReadInt64@?A0x8d67e32c@@YAXAEBV?$FunctionCallbackInfo@VValue@v8@@@Nan@@@Z 0000000180026d64     binding.obj
 0002:00009d78       $chain$1$?ReadInt64@?A0x8d67e32c@@YAXAEBV?$FunctionCallbackInfo@VValue@v8@@@Nan@@@Z 0000000180026d78     binding.obj
 0002:00009d88       $chain$2$?ReadInt64@?A0x8d67e32c@@YAXAEBV?$FunctionCallbackInfo@VValue@v8@@@Nan@@@Z 0000000180026d88     binding.obj
 0002:00009d9c       $chain$3$?ReadInt64@?A0x8d67e32c@@YAXAEBV?$FunctionCallbackInfo@VValue@v8@@@Nan@@@Z 0000000180026d9c     binding.obj
 0002:00009dac       $unwind$?WriteInt64@?A0x8d67e32c@@YAXAEBV?$FunctionCallbackInfo@VValue@v8@@@Nan@@@Z 0000000180026dac     binding.obj
 0002:00009dac       $unwind$?WriteUInt64@?A0x8d67e32c@@YAXAEBV?$FunctionCallbackInfo@VValue@v8@@@Nan@@@Z 0000000180026dac     binding.obj
 0002:00009dc4       $chain$1$?WriteInt64@?A0x8d67e32c@@YAXAEBV?$FunctionCallbackInfo@VValue@v8@@@Nan@@@Z 0000000180026dc4     binding.obj
 0002:00009ddc       $chain$2$?WriteInt64@?A0x8d67e32c@@YAXAEBV?$FunctionCallbackInfo@VValue@v8@@@Nan@@@Z 0000000180026ddc     binding.obj
 0002:00009dec       $chain$0$?ReadUInt64@?A0x8d67e32c@@YAXAEBV?$FunctionCallbackInfo@VValue@v8@@@Nan@@@Z 0000000180026dec     binding.obj
 0002:00009e00       $chain$1$?ReadUInt64@?A0x8d67e32c@@YAXAEBV?$FunctionCallbackInfo@VValue@v8@@@Nan@@@Z 0000000180026e00     binding.obj
 0002:00009e10       $chain$2$?ReadUInt64@?A0x8d67e32c@@YAXAEBV?$FunctionCallbackInfo@VValue@v8@@@Nan@@@Z 0000000180026e10     binding.obj
 0002:00009e24       $chain$3$?ReadUInt64@?A0x8d67e32c@@YAXAEBV?$FunctionCallbackInfo@VValue@v8@@@Nan@@@Z 0000000180026e24     binding.obj
 0002:00009e34       $chain$1$?WriteUInt64@?A0x8d67e32c@@YAXAEBV?$FunctionCallbackInfo@VValue@v8@@@Nan@@@Z 0000000180026e34     binding.obj
 0002:00009e4c       $chain$2$?WriteUInt64@?A0x8d67e32c@@YAXAEBV?$FunctionCallbackInfo@VValue@v8@@@Nan@@@Z 0000000180026e4c     binding.obj
 0002:00009e5c       $chain$0$?ReadCString@?A0x8d67e32c@@YAXAEBV?$FunctionCallbackInfo@VValue@v8@@@Nan@@@Z 0000000180026e5c     binding.obj
 0002:00009e70       $chain$1$?ReadCString@?A0x8d67e32c@@YAXAEBV?$FunctionCallbackInfo@VValue@v8@@@Nan@@@Z 0000000180026e70     binding.obj
 0002:00009e80       $chain$0$?ReinterpretBuffer@?A0x8d67e32c@@YAXAEBV?$FunctionCallbackInfo@VValue@v8@@@Nan@@@Z 0000000180026e80     binding.obj
 0002:00009e94       $chain$1$?ReinterpretBuffer@?A0x8d67e32c@@YAXAEBV?$FunctionCallbackInfo@VValue@v8@@@Nan@@@Z 0000000180026e94     binding.obj
 0002:00009ea8       $chain$2$?ReinterpretBuffer@?A0x8d67e32c@@YAXAEBV?$FunctionCallbackInfo@VValue@v8@@@Nan@@@Z 0000000180026ea8     binding.obj
 0002:00009eb8       $chain$6$?ReinterpretBuffer@?A0x8d67e32c@@YAXAEBV?$FunctionCallbackInfo@VValue@v8@@@Nan@@@Z 0000000180026eb8     binding.obj
 0002:00009eb8       $chain$4$?ReinterpretBuffer@?A0x8d67e32c@@YAXAEBV?$FunctionCallbackInfo@VValue@v8@@@Nan@@@Z 0000000180026eb8     binding.obj
 0002:00009ecc       $unwind$?ReinterpretBufferUntilZeros@?A0x8d67e32c@@YAXAEBV?$FunctionCallbackInfo@VValue@v8@@@Nan@@@Z 0000000180026ecc     binding.obj
 0002:00009ed8       $chain$0$?ReinterpretBufferUntilZeros@?A0x8d67e32c@@YAXAEBV?$FunctionCallbackInfo@VValue@v8@@@Nan@@@Z 0000000180026ed8     binding.obj
 0002:00009eec       $chain$1$?ReinterpretBufferUntilZeros@?A0x8d67e32c@@YAXAEBV?$FunctionCallbackInfo@VValue@v8@@@Nan@@@Z 0000000180026eec     binding.obj
 0002:00009f00       $chain$2$?ReinterpretBufferUntilZeros@?A0x8d67e32c@@YAXAEBV?$FunctionCallbackInfo@VValue@v8@@@Nan@@@Z 0000000180026f00     binding.obj
 0002:00009f10       $chain$4$?ReinterpretBufferUntilZeros@?A0x8d67e32c@@YAXAEBV?$FunctionCallbackInfo@VValue@v8@@@Nan@@@Z 0000000180026f10     binding.obj
 0002:00009f24       $unwind$?init@@YAXV?$Local@VObject@v8@@@v8@@@Z 0000000180026f24     binding.obj
 0002:00009f34       $unwind$??$SetMethod@VObject@v8@@VLocal@2@@Nan@@YAXV?$Local@VObject@v8@@@v8@@PEBDP6AXAEBV?$FunctionCallbackInfo@VValue@v8@@@0@@Z@Z 0000000180026f34     binding.obj
 0002:00009f40       $chain$3$??$SetMethod@VObject@v8@@VLocal@2@@Nan@@YAXV?$Local@VObject@v8@@@v8@@PEBDP6AXAEBV?$FunctionCallbackInfo@VValue@v8@@@0@@Z@Z 0000000180026f40     binding.obj
 0002:00009f60       $chain$4$??$SetMethod@VObject@v8@@VLocal@2@@Nan@@YAXV?$Local@VObject@v8@@@v8@@PEBDP6AXAEBV?$FunctionCallbackInfo@VValue@v8@@@0@@Z@Z 0000000180026f60     binding.obj
 0002:00009f74       $chain$5$??$SetMethod@VObject@v8@@VLocal@2@@Nan@@YAXV?$Local@VObject@v8@@@v8@@PEBDP6AXAEBV?$FunctionCallbackInfo@VValue@v8@@@0@@Z@Z 0000000180026f74     binding.obj
 0002:00009f84       $chain$6$??$SetMethod@VObject@v8@@VLocal@2@@Nan@@YAXV?$Local@VObject@v8@@@v8@@PEBDP6AXAEBV?$FunctionCallbackInfo@VValue@v8@@@0@@Z@Z 0000000180026f84     binding.obj
 0002:00009f94       $unwind$__acrt_stdio_begin_temporary_buffering_nolock 0000000180026f94     libucrt:_sftbuf.obj
 0002:00009f94       $unwind$?SetUnwindTryBlock@__FrameHandler3@@SAXPEA_KPEAU_xDISPATCHER_CONTEXT@@PEBU_s_FuncInfo@@H@Z 0000000180026f94     libvcruntime:ehstate.obj
 0002:00009f94       $unwind$?force_decimal_point@__crt_stdio_output@@YAXPEADQEAU__crt_locale_pointers@@@Z 0000000180026f94     libucrt:output.obj
 0002:00009f94       $unwind$__acrt_stdio_allocate_buffer_nolock 0000000180026f94     libucrt:_getbuf.obj
 0002:00009f94       $unwind$__acrt_getptd      0000000180026f94     libucrt:per_thread_data.obj
 0002:00009f94       $unwind$__acrt_uninitialize_lowio 0000000180026f94     libucrt:ioinit.obj
 0002:00009f94       $unwind$??$invokeparameter@$00@?$WeakCallbackInfo@X@Nan@@CAXAEBV?$WeakCallbackInfo@V?$WeakCallbackInfo@X@Nan@@@v8@@@Z 0000000180026f94     binding.obj
 0002:00009f94       $unwind$_FindAndUnlinkFrame 0000000180026f94     libvcruntime:risctrnsctrl.obj
 0002:00009f94       $unwind$__acrt_FlsSetValue 0000000180026f94     libucrt:winapi_thunks.obj
 0002:00009f94       $unwind$wcsncat_s          0000000180026f94     libucrt:wcsncat_s.obj
 0002:00009f94       $unwind$_RTC_Initialize    0000000180026f94     LIBCMT:_initsect_.obj
 0002:00009f94       $unwind$strncpy_s          0000000180026f94     libucrt:strncpy_s.obj
 0002:00009f94       $unwind$__acrt_getptd_noexit 0000000180026f94     libucrt:per_thread_data.obj
 0002:00009f94       $unwind$?replace_current_thread_locale_nolock@@YAXQEAU__acrt_ptd@@QEAU__crt_locale_data@@@Z 0000000180026f94     libucrt:per_thread_data.obj
 0002:00009f94       $unwind$__acrt_execute_uninitializers 0000000180026f94     libucrt:shared_initialization.obj
 0002:00009f94       $unwind$??_Gbad_array_new_length@std@@UEAAPEAXI@Z 0000000180026f94     LIBCMT:throw_bad_alloc.obj
 0002:00009f94       $unwind$_initterm_e        0000000180026f94     libucrt:initterm.obj
 0002:00009f94       $unwind$_realloc_base      0000000180026f94     libucrt:realloc_base.obj
 0002:00009f94       $unwind$_RTC_Terminate     0000000180026f94     LIBCMT:_initsect_.obj
 0002:00009f94       $unwind$??_Gbad_alloc@std@@UEAAPEAXI@Z 0000000180026f94     LIBCMT:throw_bad_alloc.obj
 0002:00009f94       $unwind$_updatetlocinfoEx_nolock 0000000180026f94     libucrt:locale_refcounting.obj
 0002:00009f94       $unwind$??_Gexception@std@@UEAAPEAXI@Z 0000000180026f94     LIBCMT:throw_bad_alloc.obj
 0002:00009f94       $unwind$__acrt_LocaleNameToLCID 0000000180026f94     libucrt:winapi_thunks.obj
 0002:00009f94       $unwind$?type_case_c_tchar@?$output_processor@DV?$string_output_adapter@D@__crt_stdio_output@@V?$format_validation_base@DV?$string_output_adapter@D@__crt_stdio_output@@@2@@__crt_stdio_output@@AEAA_ND@Z 0000000180026f94     libucrt:output.obj
 0002:00009f94       $unwind$__acrt_fp_strflt_to_string 0000000180026f94     libucrt:_fptostr.obj
 0002:00009f94       $unwind$__vcrt_FlsSetValue 0000000180026f94     libvcruntime:winapi_downlevel.obj
 0002:00009f94       $unwind$??_Gbad_exception@std@@UEAAPEAXI@Z 0000000180026f94     libvcruntime:frame.obj
 0002:00009f94       $unwind$_close_nolock      0000000180026f94     libucrt:close.obj
 0002:00009f94       $unwind$_fclose_nolock     0000000180026f94     libucrt:fclose.obj
 0002:00009f94       $unwind$__acrt_can_show_message_box 0000000180026f94     libucrt:winapi_thunks.obj
 0002:00009f94       $unwind$??$common_initialize_environment_nolock@D@@YAHXZ 0000000180026f94     libucrt:environment_initialization.obj
 0002:00009f94       $unwind$__acrt_errno_map_os_error 0000000180026f94     libucrt:errno.obj
 0002:00009f94       $unwind$?DloadGetSRWLockFunctionPointers@@YAEXZ 0000000180026f94     DelayImp:delayhlp.obj
 0002:00009fa0       $unwind$??$SetMethodAux@V?$Local@VObject@v8@@@v8@@@imp@Nan@@YAXV?$Local@VObject@v8@@@v8@@V?$Local@VString@v8@@@3@V?$Local@VFunctionTemplate@v8@@@3@ZZ 0000000180026fa0     binding.obj
 0002:00009fb0       $unwind$__acrt_stdio_free_buffer_nolock 0000000180026fb0     libucrt:_freebuf.obj
 0002:00009fb0       $unwind$__acrt_get_process_end_policy 0000000180026fb0     libucrt:win_policies.obj
 0002:00009fb0       $unwind$__acrt_uninitialize_locks 0000000180026fb0     libucrt:locks.obj
 0002:00009fb0       $unwind$__acrt_initialize_locks 0000000180026fb0     libucrt:locks.obj
 0002:00009fb0       $unwind$__vcrt_freeptd     0000000180026fb0     libvcruntime:per_thread_data.obj
 0002:00009fb0       $unwind$_calloc_base       0000000180026fb0     libucrt:calloc_base.obj
 0002:00009fb0       $unwind$__vcrt_initialize_locks 0000000180026fb0     libvcruntime:locks.obj
 0002:00009fb0       $unwind$__vcrt_uninitialize_locks 0000000180026fb0     libvcruntime:locks.obj
 0002:00009fb0       $unwind$__vcrt_FlsAlloc    0000000180026fb0     libvcruntime:winapi_downlevel.obj
 0002:00009fb0       $unwind$__vcrt_FlsFree     0000000180026fb0     libvcruntime:winapi_downlevel.obj
 0002:00009fb0       $unwind$??_Gtype_info@@UEAAPEAXI@Z 0000000180026fb0     LIBCMT:std_type_info_static.obj
 0002:00009fb0       $unwind$__vcrt_FlsGetValue 0000000180026fb0     libvcruntime:winapi_downlevel.obj
 0002:00009fb0       $unwind$?DloadAcquireSectionWriteAccess@@YAXXZ 0000000180026fb0     DelayImp:delayhlp.obj
 0002:00009fb0       $unwind$fegetenv           0000000180026fb0     libucrt:fegetenv.obj
 0002:00009fb0       $unwind$__std_exception_destroy 0000000180026fb0     libvcruntime:std_exception.obj
 0002:00009fb0       $unwind$__std_type_info_destroy_list 0000000180026fb0     libvcruntime:std_type_info.obj
 0002:00009fb0       $unwind$?ExecutionInCatch@__FrameHandler3@@SA_NPEAU_xDISPATCHER_CONTEXT@@PEBU_s_FuncInfo@@@Z 0000000180026fb0     libvcruntime:risctrnsctrl.obj
 0002:00009fb0       $unwind$_fflush_nolock     0000000180026fb0     libucrt:fflush.obj
 0002:00009fb0       $unwind$_SetImageBase      0000000180026fb0     libvcruntime:risctrnsctrl.obj
 0002:00009fb0       $unwind$fesetenv           0000000180026fb0     libucrt:fesetenv.obj
 0002:00009fb0       $unwind$_SetThrowImageBase 0000000180026fb0     libvcruntime:risctrnsctrl.obj
 0002:00009fb0       $unwind$_CreateFrameInfo   0000000180026fb0     libvcruntime:risctrnsctrl.obj
 0002:00009fb0       $unwind$feholdexcept       0000000180026fb0     libucrt:feholdexcept.obj
 0002:00009fb0       $unwind$wcscpy_s           0000000180026fb0     libucrt:wcscpy_s.obj
 0002:00009fb0       $unwind$wcscat_s           0000000180026fb0     libucrt:wcscat_s.obj
 0002:00009fb0       $unwind$__acrt_get_developer_information_policy 0000000180026fb0     libucrt:win_policies.obj
 0002:00009fb0       $unwind$?StateFromIp@__FrameHandler3@@SAHPEBU_s_FuncInfo@@PEAU_xDISPATCHER_CONTEXT@@_K@Z 0000000180026fb0     libvcruntime:ehstate.obj
 0002:00009fb0       $unwind$__acrt_uninitialize_stdio 0000000180026fb0     libucrt:_file.obj
 0002:00009fb0       $unwind$?GetUnwindTryBlock@__FrameHandler3@@SAHPEA_KPEAU_xDISPATCHER_CONTEXT@@PEBU_s_FuncInfo@@@Z 0000000180026fb0     libvcruntime:ehstate.obj
 0002:00009fb0       $unwind$__scrt_uninitialize_crt 0000000180026fb0     LIBCMT:utility.obj
 0002:00009fb0       $unwind$__acrt_uninitialize_winapi_thunks 0000000180026fb0     libucrt:winapi_thunks.obj
 0002:00009fb0       $unwind$__acrt_FlsAlloc    0000000180026fb0     libucrt:winapi_thunks.obj
 0002:00009fb0       $unwind$__scrt_initialize_crt 0000000180026fb0     LIBCMT:utility.obj
 0002:00009fb0       $unwind$??0bad_exception@std@@QEAA@AEBV01@@Z 0000000180026fb0     libvcruntime:frame.obj
 0002:00009fb0       $unwind$__acrt_FlsFree     0000000180026fb0     libucrt:winapi_thunks.obj
 0002:00009fb0       $unwind$?ExFilterRethrow@@YAHPEAU_EXCEPTION_POINTERS@@PEAUEHExceptionRecord@@PEAH@Z 0000000180026fb0     libvcruntime:frame.obj
 0002:00009fb0       $unwind$?__c16rtomb_utf8@__crt_mbstring@@YA_KPEAD_SPEAU_Mbstatet@@@Z 0000000180026fb0     libucrt:c16rtomb.obj
 0002:00009fb0       $unwind$??$invokeparameter@$0A@@?$WeakCallbackInfo@X@Nan@@CAXAEBV?$WeakCallbackInfo@V?$WeakCallbackInfo@X@Nan@@@v8@@@Z 0000000180026fb0     binding.obj
 0002:00009fb0       $unwind$_malloc_base       0000000180026fb0     libucrt:malloc_base.obj
 0002:00009fb0       $unwind$__acrt_FlsGetValue 0000000180026fb0     libucrt:winapi_thunks.obj
 0002:00009fb0       $unwind$__raise_securityfailure 0000000180026fb0     LIBCMT:gs_report.obj
 0002:00009fb0       $unwind$__scrt_release_startup_lock 0000000180026fb0     LIBCMT:utility.obj
 0002:00009fb0       $unwind$?state_case_normal@?$output_processor@DV?$string_output_adapter@D@__crt_stdio_output@@V?$format_validation_base@DV?$string_output_adapter@D@__crt_stdio_output@@@2@@__crt_stdio_output@@AEAA_NXZ 0000000180026fb0     libucrt:output.obj
 0002:00009fb0       $unwind$?internal_isupper_l@@YA_NHQEAU__crt_locale_pointers@@@Z 0000000180026fb0     libucrt:tolower_toupper.obj
 0002:00009fb0       $unwind$__acrt_update_multibyte_info 0000000180026fb0     libucrt:locale_update.obj
 0002:00009fb0       $unwind$??0exception@std@@QEAA@AEBV01@@Z 0000000180026fb0     LIBCMT:throw_bad_alloc.obj
 0002:00009fb0       $unwind$_set_statfp        0000000180026fb0     libucrt:fpctrl.obj
 0002:00009fb0       $unwind$??2@YAPEAX_K@Z     0000000180026fb0     LIBCMT:new_scalar.obj
 0002:00009fb0       $unwind$?type_case_s@?$output_processor@DV?$string_output_adapter@D@__crt_stdio_output@@V?$format_validation_base@DV?$string_output_adapter@D@__crt_stdio_output@@@2@@__crt_stdio_output@@AEAA_NXZ 0000000180026fb0     libucrt:output.obj
 0002:00009fb0       $unwind$__acrt_update_locale_info 0000000180026fb0     libucrt:locale_update.obj
 0002:00009fb0       $unwind$__acrt_AppPolicyGetProcessTerminationMethodInternal 0000000180026fb0     libucrt:winapi_thunks.obj
 0002:00009fb0       $unwind$__acrt_AppPolicyGetShowDeveloperDiagnosticInternal 0000000180026fb0     libucrt:winapi_thunks.obj
 0002:00009fb0       $unwind$?load_exe_hook@@YAP6A_JXZIPEAUDelayLoadInfo@@@Z 0000000180026fb0     win_delay_load_hook.obj
 0002:00009fb0       $unwind$__acrt_AppPolicyGetWindowingModelInternal 0000000180026fb0     libucrt:winapi_thunks.obj
 0002:00009fb0       $unwind$??0bad_alloc@std@@QEAA@AEBV01@@Z 0000000180026fb0     LIBCMT:throw_bad_alloc.obj
 0002:00009fb0       $unwind$__acrt_freeptd     0000000180026fb0     libucrt:per_thread_data.obj
 0002:00009fb0       $unwind$__acrt_getptd_head 0000000180026fb0     libucrt:per_thread_data.obj
 0002:00009fb0       $unwind$__acrt_get_parent_window 0000000180026fb0     libucrt:winapi_thunks.obj
 0002:00009fb0       $unwind$_clearfp           0000000180026fb0     libucrt:ieee.obj
 0002:00009fb0       $unwind$_callnewh          0000000180026fb0     libucrt:new_handler.obj
 0002:00009fb0       $unwind$strcpy_s           0000000180026fb0     libucrt:strcpy_s.obj
 0002:00009fb0       $unwind$_IsExceptionObjectToBeDestroyed 0000000180026fb0     libvcruntime:ehhelpers.obj
 0002:00009fb0       $unwind$??0bad_array_new_length@std@@QEAA@AEBV01@@Z 0000000180026fb0     LIBCMT:throw_bad_alloc.obj
 0002:00009fb0       $unwind$uninitialize_allocated_memory 0000000180026fb0     libucrt:initialization.obj
 0002:00009fb0       $unwind$_clrfp             0000000180026fb0     libucrt:fpctrl.obj
 0002:00009fb0       $unwind$?try_cor_exit_process@@YAXI@Z 0000000180026fb0     libucrt:exit.obj
 0002:00009fb0       $unwind$?exit_or_terminate_process@@YAXI@Z 0000000180026fb0     libucrt:exit.obj
 0002:00009fb0       $unwind$initialize_pointers 0000000180026fb0     libucrt:initialization.obj
 0002:00009fb0       $unwind$__acrt_get_windowing_model_policy 0000000180026fb0     libucrt:win_policies.obj
 0002:00009fb0       $unwind$__acrt_allocate_buffer_for_argv 0000000180026fb0     libucrt:argv_parsing.obj
 0002:00009fb8       xdata                      0000000180026fb8     node:node.exe
 0002:00009fc0       $xdatasym                  0000000180026fc0     LIBCMT:_amdsecgs_.obj
 0002:00009fc4       $unwind$?dllmain_crt_process_attach@@YAHQEAUHINSTANCE__@@QEAX@Z 0000000180026fc4     LIBCMT:dll_dllmain.obj
 0002:0000a000       $unwind$?fin$0@?0??update_thread_multibyte_data_internal@@YAPEAU__crt_multibyte_data@@QEAU__acrt_ptd@@QEAPEAU1@@Z@4HA 0000000180027000     libucrt:mbctype.obj
 0002:0000a000       $unwind$?fin$0@?0???$?RV<lambda_c376a267cfb53b6959b3b692ec76b120>@@AEAV<lambda_9a32fed5bf61b6b509b2d3f6003082a1>@@V<lambda_572fbb9fa0ab338edf41edfd4b5fcc8d>@@@?$__crt_seh_guarded_call@H@@QEAAH$$QEAV<lambda_c376a267cfb53b6959b3b692ec76b120>@@AEAV<lambda_9a32fed5bf61b6b509b2d3f6003082a1>@@$$QEAV<lambda_572fbb9fa0ab338edf41edfd4b5fcc8d>@@@Z@4HA 0000000180027000     libucrt:fflush.obj
 0002:0000a000       $unwind$_IsNonwritableInCurrentImage$filt$0 0000000180027000     LIBCMT:pesect.obj
 0002:0000a000       $unwind$?fin$0@?0???$?RV<lambda_886d6c58226a84441f68b9f2b8217b83>@@AEAV<lambda_ab61a845afdef5b7c387490eaf3616ee>@@V<lambda_f7f22ab5edc0698d5f6905b0d3f44752>@@@?$__crt_seh_guarded_call@X@@QEAAX$$QEAV<lambda_886d6c58226a84441f68b9f2b8217b83>@@AEAV<lambda_ab61a845afdef5b7c387490eaf3616ee>@@$$QEAV<lambda_f7f22ab5edc0698d5f6905b0d3f44752>@@@Z@4HA 0000000180027000     libucrt:fflush.obj
 0002:0000a000       $unwind$?fin$0@?0??dllmain_crt_process_attach@@YAHQEAUHINSTANCE__@@QEAX@Z@4HA 0000000180027000     LIBCMT:dll_dllmain.obj
 0002:0000a000       $unwind$raise$fin$0        0000000180027000     libucrt:signal.obj
 0002:0000a000       $unwind$?fin$0@?0???$?RV<lambda_7777bce6b2f8c936911f934f8298dc43>@@AEAV<lambda_f03950bc5685219e0bcd2087efbe011e>@@V<lambda_3883c3dff614d5e0c5f61bb1ac94921c>@@@?$__crt_seh_guarded_call@H@@QEAAH$$QEAV<lambda_7777bce6b2f8c936911f934f8298dc43>@@AEAV<lambda_f03950bc5685219e0bcd2087efbe011e>@@$$QEAV<lambda_3883c3dff614d5e0c5f61bb1ac94921c>@@@Z@4HA 0000000180027000     libucrt:onexit.obj
 0002:0000a000       $unwind$?fin$0@?0???$?RV<lambda_751a882b2c74d4b022dec766aa51a29a>@@AEAV<lambda_628dfdc04ba53c8bfc02c9951375f3f5>@@V<lambda_f6c7be5f7998530c34de24c7437d6b54>@@@?$__crt_seh_guarded_call@H@@QEAAH$$QEAV<lambda_751a882b2c74d4b022dec766aa51a29a>@@AEAV<lambda_628dfdc04ba53c8bfc02c9951375f3f5>@@$$QEAV<lambda_f6c7be5f7998530c34de24c7437d6b54>@@@Z@4HA 0000000180027000     libucrt:close.obj
 0002:0000a000       $unwind$?fin$0@?0???$?RV<lambda_84ec643ea9557e2f7dc01bb0e9624395>@@AEAV<lambda_ca71763b3c0644891230e4f79ea54fa6>@@V<lambda_439a761618c59b0600e24586724d733b>@@@?$__crt_seh_guarded_call@H@@QEAAH$$QEAV<lambda_84ec643ea9557e2f7dc01bb0e9624395>@@AEAV<lambda_ca71763b3c0644891230e4f79ea54fa6>@@$$QEAV<lambda_439a761618c59b0600e24586724d733b>@@@Z@4HA 0000000180027000     libucrt:setvbuf.obj
 0002:0000a000       $unwind$_write$fin$0       0000000180027000     libucrt:write.obj
 0002:0000a000       $unwind$?fin$0@?0???$?RV<lambda_842d9ff0dc9ef11c61343bbaebe7f885>@@AEAV<lambda_c5860995281e5c4ce005b3de8f5874ee>@@V<lambda_d90129c13df834fdcbf8d2b88dafcf2d>@@@?$__crt_seh_guarded_call@X@@QEAAX$$QEAV<lambda_842d9ff0dc9ef11c61343bbaebe7f885>@@AEAV<lambda_c5860995281e5c4ce005b3de8f5874ee>@@$$QEAV<lambda_d90129c13df834fdcbf8d2b88dafcf2d>@@@Z@4HA 0000000180027000     libucrt:fflush.obj
 0002:0000a000       $unwind$?fin$0@?0???$?RV<lambda_d80eeec6fff315bfe5c115232f3240e3>@@AEAV<lambda_6e4b09c48022b2350581041d5f6b0c4c>@@V<lambda_2358e3775559c9db80273638284d5e45>@@@?$__crt_seh_guarded_call@X@@QEAAX$$QEAV<lambda_d80eeec6fff315bfe5c115232f3240e3>@@AEAV<lambda_6e4b09c48022b2350581041d5f6b0c4c>@@$$QEAV<lambda_2358e3775559c9db80273638284d5e45>@@@Z@4HA 0000000180027000     libucrt:exit.obj
 0002:0000a000       $unwind$?fin$0@?0???$?RV<lambda_efdfa57d1f175319df784efa44bb7b81>@@AEAV<lambda_5f0a4c1567f8adc6734073e5d1e1b35c>@@V<lambda_2e8a7d3640ea6ccb4c2413664c2db6fd>@@@?$__crt_seh_guarded_call@X@@QEAAX$$QEAV<lambda_efdfa57d1f175319df784efa44bb7b81>@@AEAV<lambda_5f0a4c1567f8adc6734073e5d1e1b35c>@@$$QEAV<lambda_2e8a7d3640ea6ccb4c2413664c2db6fd>@@@Z@4HA 0000000180027000     libucrt:mbctype.obj
 0002:0000a000       $unwind$?fin$0@?0???$?RV<lambda_a37b2b86f63e897a80ea819b0eb08c01>@@AEAV<lambda_38ce7e780aa69e748d6df282ebc68efe>@@V<lambda_99fb1378e971ab6e7edea83e3a7a83a2>@@@?$__crt_seh_guarded_call@H@@QEAAH$$QEAV<lambda_a37b2b86f63e897a80ea819b0eb08c01>@@AEAV<lambda_38ce7e780aa69e748d6df282ebc68efe>@@$$QEAV<lambda_99fb1378e971ab6e7edea83e3a7a83a2>@@@Z@4HA 0000000180027000     libucrt:commit.obj
 0002:0000a000       $unwind$?fin$0@?0???$common_lseek@_J@@YA_JH_JH@Z@4HA 0000000180027000     libucrt:lseek.obj
 0002:0000a000       $unwind$_fcloseall$fin$0   0000000180027000     libucrt:closeall.obj
 0002:0000a000       $unwind$?filt$0@?0???R<lambda_6e4b09c48022b2350581041d5f6b0c4c>@@QEBA@XZ@4HA 0000000180027000     libucrt:exit.obj
 0002:0000a000       $unwind$__DestructExceptionObject$filt$0 0000000180027000     libvcruntime:ehhelpers.obj
 0002:0000a000       $unwind$__acrt_initialize_lowio$fin$0 0000000180027000     libucrt:ioinit.obj
 0002:0000a000       $unwind$_query_new_handler$fin$0 0000000180027000     libucrt:new_handler.obj
 0002:0000a000       $unwind$fclose$fin$0       0000000180027000     libucrt:fclose.obj
 0002:0000a000       $unwind$?filt$0@?0??FrameUnwindToState@__FrameHandler3@@SAXPEA_KPEAU_xDISPATCHER_CONTEXT@@PEBU_s_FuncInfo@@H@Z@4HA 0000000180027000     libvcruntime:frame.obj
 0002:0000a000       $unwind$?fin$1@?0??FrameUnwindToState@__FrameHandler3@@SAXPEA_KPEAU_xDISPATCHER_CONTEXT@@PEBU_s_FuncInfo@@H@Z@4HA 0000000180027000     libvcruntime:frame.obj
 0002:0000a000       $unwind$?filt$0@?0??CxxCallCatchBlock@__FrameHandler3@@SAPEAXPEAU_EXCEPTION_RECORD@@@Z@4HA 0000000180027000     libvcruntime:frame.obj
 0002:0000a000       $unwind$?fin$0@?0???$?RV<lambda_0d412022a4b28cc8a401ea49574e8ae6>@@AEAV<lambda_a775ed57af18ba8e4d5dc780aa9068fe>@@V<lambda_975a71a6baa488a08f4e15f6b0339b9e>@@@?$__crt_seh_guarded_call@H@@QEAAH$$QEAV<lambda_0d412022a4b28cc8a401ea49574e8ae6>@@AEAV<lambda_a775ed57af18ba8e4d5dc780aa9068fe>@@$$QEAV<lambda_975a71a6baa488a08f4e15f6b0339b9e>@@@Z@4HA 0000000180027000     libucrt:output.obj
 0002:0000a000       $unwind$__acrt_lowio_ensure_fh_exists$fin$0 0000000180027000     libucrt:osfinfo.obj
 0002:0000a000       $unwind$?fin$0@?0???$?RV<lambda_450d765d439847d4c735a33c368b5fc0>@@AEAV<lambda_44731a7d0e6d81c3e6aa82d741081786>@@V<lambda_601a2a7da3b7a96e9554ac7215c4b07c>@@@?$__crt_seh_guarded_call@P6AXH@Z@@QEAAP6AXH@Z$$QEAV<lambda_450d765d439847d4c735a33c368b5fc0>@@AEAV<lambda_44731a7d0e6d81c3e6aa82d741081786>@@$$QEAV<lambda_601a2a7da3b7a96e9554ac7215c4b07c>@@@Z@4HA 0000000180027000     libucrt:signal.obj
 0002:0000a000       $unwind$_ctrlfp$filt$0     0000000180027000     libucrt:fpctrl.obj
 0002:0000a000       $unwind$__acrt_update_thread_locale_data$fin$0 0000000180027000     libucrt:locale_refcounting.obj
 0002:0000a000       $unwind$?fin$0@?0???$?RV<lambda_410d79af7f07d98d83a3f525b3859a53>@@AEAV<lambda_3e16ef9562a7dcce91392c22ab16ea36>@@V<lambda_38119f0e861e05405d8a144b9b982f0a>@@@?$__crt_seh_guarded_call@X@@QEAAX$$QEAV<lambda_410d79af7f07d98d83a3f525b3859a53>@@AEAV<lambda_3e16ef9562a7dcce91392c22ab16ea36>@@$$QEAV<lambda_38119f0e861e05405d8a144b9b982f0a>@@@Z@4HA 0000000180027000     libucrt:wsetlocale.obj
 0002:0000a000       $unwind$?fin$0@?0??dllmain_crt_process_detach@@YAH_N@Z@4HA 0000000180027000     LIBCMT:dll_dllmain.obj
 0002:0000a000       $unwind$?fin$0@?0???$?RV<lambda_0ae27a3a962d80f24befdcbee591983d>@@AEAV<lambda_8d0ee55de4b1038c4002e0adecdf1839>@@V<lambda_dc504788e8f1664fe9b84e20bfb512f2>@@@?$__crt_seh_guarded_call@X@@QEAAX$$QEAV<lambda_0ae27a3a962d80f24befdcbee591983d>@@AEAV<lambda_8d0ee55de4b1038c4002e0adecdf1839>@@$$QEAV<lambda_dc504788e8f1664fe9b84e20bfb512f2>@@@Z@4HA 0000000180027000     libucrt:per_thread_data.obj
 0002:0000a000       $unwind$?fin$0@?0???$?RV<lambda_2d41944a1d46af3157314b8a01080d33>@@AEAV<lambda_8f455de75cd7d7f24b4096f044d8b9e6>@@V<lambda_aa500f224e6afead328df44964fe2772>@@@?$__crt_seh_guarded_call@X@@QEAAX$$QEAV<lambda_2d41944a1d46af3157314b8a01080d33>@@AEAV<lambda_8f455de75cd7d7f24b4096f044d8b9e6>@@$$QEAV<lambda_aa500f224e6afead328df44964fe2772>@@@Z@4HA 0000000180027000     libucrt:per_thread_data.obj
 0002:0000a000       $unwind$?fin$0@?0???$?RV<lambda_aa87e3671a710a21b5dc78c0bdf72e11>@@AEAV<lambda_92619d2358a28f41a33ba319515a20b9>@@V<lambda_6992ecaafeb10aed2b74cb1fae11a551>@@@?$__crt_seh_guarded_call@X@@QEAAX$$QEAV<lambda_aa87e3671a710a21b5dc78c0bdf72e11>@@AEAV<lambda_92619d2358a28f41a33ba319515a20b9>@@$$QEAV<lambda_6992ecaafeb10aed2b74cb1fae11a551>@@@Z@4HA 0000000180027000     libucrt:per_thread_data.obj
 0002:0000a000       $unwind$?fin$0@?0???$?RV<lambda_f2e299630e499de9f9a165e60fcd3db5>@@AEAV<lambda_2ae9d31cdba2644fcbeaf08da7c24588>@@V<lambda_40d01ff24d0e7b3814fdbdcee8eab3c7>@@@?$__crt_seh_guarded_call@X@@QEAAX$$QEAV<lambda_f2e299630e499de9f9a165e60fcd3db5>@@AEAV<lambda_2ae9d31cdba2644fcbeaf08da7c24588>@@$$QEAV<lambda_40d01ff24d0e7b3814fdbdcee8eab3c7>@@@Z@4HA 0000000180027000     libucrt:per_thread_data.obj
 0002:0000a008       $unwind$?dllmain_crt_process_detach@@YAH_N@Z 0000000180027008     LIBCMT:dll_dllmain.obj
 0002:0000a040       $unwind$_statfp            0000000180027040     libucrt:fpctrl.obj
 0002:0000a040       $unwind$_errno             0000000180027040     libucrt:errno.obj
 0002:0000a040       $unwind$?dllmain_crt_dispatch@@YAHQEAUHINSTANCE__@@KQEAX@Z 0000000180027040     LIBCMT:dll_dllmain.obj
 0002:0000a040       $unwind$?state_case_size@?$output_processor@DV?$string_output_adapter@D@__crt_stdio_output@@V?$format_validation_base@DV?$string_output_adapter@D@__crt_stdio_output@@@2@@__crt_stdio_output@@AEAA_NXZ 0000000180027040     libucrt:output.obj
 0002:0000a040       $unwind$__scrt_initialize_default_local_stdio_options 0000000180027040     LIBCMT:default_local_stdio_options.obj
 0002:0000a040       $unwind$_stricmp           0000000180027040     libucrt:stricmp.obj
 0002:0000a040       $unwind$__vcrt_thread_detach 0000000180027040     libvcruntime:initialization.obj
 0002:0000a040       $unwind$tolower            0000000180027040     libucrt:tolower_toupper.obj
 0002:0000a040       $unwind$?state_case_normal_tchar@?$output_processor@DV?$string_output_adapter@D@__crt_stdio_output@@V?$format_validation_base@DV?$string_output_adapter@D@__crt_stdio_output@@@2@@__crt_stdio_output@@AEAA_ND@Z 0000000180027040     libucrt:output.obj
 0002:0000a040       $unwind$__acrt_uninitialize_ptd 0000000180027040     libucrt:per_thread_data.obj
 0002:0000a040       $unwind$?state_case_size@?$output_processor@_WV?$string_output_adapter@_W@__crt_stdio_output@@V?$standard_base@_WV?$string_output_adapter@_W@__crt_stdio_output@@@2@@__crt_stdio_output@@AEAA_NXZ 0000000180027040     libucrt:output.obj
 0002:0000a040       $unwind$?state_case_size@?$output_processor@_WV?$stream_output_adapter@_W@__crt_stdio_output@@V?$standard_base@_WV?$stream_output_adapter@_W@__crt_stdio_output@@@2@@__crt_stdio_output@@AEAA_NXZ 0000000180027040     libucrt:output.obj
 0002:0000a040       $unwind$?__c32rtomb_utf8@__crt_mbstring@@YA_KPEAD_UPEAU_Mbstatet@@@Z 0000000180027040     libucrt:c32rtomb.obj
 0002:0000a040       $unwind$__FrameUnwindFilter 0000000180027040     libvcruntime:ehhelpers.obj
 0002:0000a040       $unwind$__acrt_initialize_ptd 0000000180027040     libucrt:per_thread_data.obj
 0002:0000a040       $unwind$_fileno            0000000180027040     libucrt:fileno.obj
 0002:0000a040       $unwind$__pctype_func      0000000180027040     libucrt:ctype.obj
 0002:0000a040       $unwind$_invoke_watson     0000000180027040     libucrt:invalid_parameter.obj
 0002:0000a040       $unwind$?GetCurrentState@__FrameHandler3@@SAHPEA_KPEAU_xDISPATCHER_CONTEXT@@PEBU_s_FuncInfo@@@Z 0000000180027040     libvcruntime:ehstate.obj
 0002:0000a040       $unwind$abort              0000000180027040     libucrt:abort.obj
 0002:0000a040       $unwind$uninitialize_allocated_io_buffers 0000000180027040     libucrt:initialization.obj
 0002:0000a040       $unwind$_set_error_mode    0000000180027040     libucrt:set_error_mode.obj
 0002:0000a040       $unwind$__acrt_release_locale_ref 0000000180027040     libucrt:locale_refcounting.obj
 0002:0000a040       $unwind$__vcrt_thread_attach 0000000180027040     libvcruntime:initialization.obj
 0002:0000a040       $unwind$uninitialize_environment 0000000180027040     libucrt:initialization.obj
 0002:0000a040       $unwind$initialize_c       0000000180027040     libucrt:initialization.obj
 0002:0000a040       $unwind$__vcrt_uninitialize_critical 0000000180027040     libvcruntime:initialization.obj
 0002:0000a040       $unwind$__vcrt_uninitialize 0000000180027040     libvcruntime:initialization.obj
 0002:0000a040       $unwind$__acrt_initialize_command_line 0000000180027040     libucrt:argv_data.obj
 0002:0000a040       $unwind$__report_rangecheckfailure 0000000180027040     LIBCMT:gs_report.obj
 0002:0000a040       $unwind$_GetThrowImageBase 0000000180027040     libvcruntime:risctrnsctrl.obj
 0002:0000a040       $unwind$__acrt_thread_detach 0000000180027040     libucrt:initialization.obj
 0002:0000a040       $unwind$_GetImageBase      0000000180027040     libvcruntime:risctrnsctrl.obj
 0002:0000a040       $unwind$__vcrt_initialize  0000000180027040     libvcruntime:initialization.obj
 0002:0000a040       $unwind$__scrt_dllmain_before_initialize_c 0000000180027040     LIBCMT:utility.obj
 0002:0000a040       $unwind$__acrt_thread_attach 0000000180027040     libucrt:initialization.obj
 0002:0000a040       $unwind$__GSHandlerCheck   0000000180027040     LIBCMT:_gshandler_.obj
 0002:0000a040       $unwind$__acrt_uninitialize 0000000180027040     libucrt:initialization.obj
 0002:0000a040       $unwind$__scrt_dllmain_after_initialize_c 0000000180027040     LIBCMT:utility.obj
 0002:0000a040       $unwind$??$uninitialize_environment_internal@_W@@YAXAEAPEAPEA_W@Z 0000000180027040     libucrt:environment_initialization.obj
 0002:0000a040       $unwind$__acrt_initialize_heap 0000000180027040     libucrt:heap_handle.obj
 0002:0000a040       $unwind$??$uninitialize_environment_internal@D@@YAXAEAPEAPEAD@Z 0000000180027040     libucrt:environment_initialization.obj
 0002:0000a040       $unwind$__scrt_dllmain_uninitialize_c 0000000180027040     LIBCMT:utility.obj
 0002:0000a040       $unwind$__dcrt_terminate_console_output 0000000180027040     libucrt:initcon.obj
 0002:0000a040       $unwind$?DloadReleaseSectionWriteAccess@@YAXXZ 0000000180027040     DelayImp:delayhlp.obj
 0002:0000a040       $unwind$__dcrt_uninitialize_environments_nolock 0000000180027040     libucrt:environment_initialization.obj
 0002:0000a040       $unwind$__scrt_dllmain_uninitialize_critical 0000000180027040     LIBCMT:utility.obj
 0002:0000a040       $unwind$__doserrno         0000000180027040     libucrt:errno.obj
 0002:0000a040       $unwind$__scrt_acquire_startup_lock 0000000180027040     LIBCMT:utility.obj
 0002:0000a040       $unwind$_get_osfhandle     0000000180027040     libucrt:osfinfo.obj
 0002:0000a040       $unwind$__scrt_dllmain_crt_thread_attach 0000000180027040     LIBCMT:utility.obj
 0002:0000a040       $unwind$__vcrt_freefls     0000000180027040     libvcruntime:per_thread_data.obj
 0002:0000a040       $unwind$__acrt_DownlevelLocaleNameToLCID 0000000180027040     libucrt:lcidtoname_downlevel.obj
 0002:0000a040       $unwind$__acrt_initialize_multibyte 0000000180027040     libucrt:mbctype.obj
 0002:0000a040       $unwind$__scrt_dllmain_crt_thread_detach 0000000180027040     LIBCMT:utility.obj
 0002:0000a040       $unwind$__acrt_update_thread_multibyte_data 0000000180027040     libucrt:mbctype.obj
 0002:0000a040       $unwind$_msize_base        0000000180027040     libucrt:msize.obj
 0002:0000a040       $unwind$__vcrt_getptd      0000000180027040     libvcruntime:per_thread_data.obj
 0002:0000a040       $unwind$_set_errno_from_matherr 0000000180027040     libucrt:fpexcept.obj
 0002:0000a040       $unwind$__vcrt_uninitialize_ptd 0000000180027040     libvcruntime:per_thread_data.obj
 0002:0000a040       $unwind$__vcrt_initialize_ptd 0000000180027040     libvcruntime:per_thread_data.obj
 0002:0000a040       $unwind$__acrt_uninitialize_critical 0000000180027040     libucrt:initialization.obj
 0002:0000a040       $unwind$?initialize_multibyte@@YAHXZ 0000000180027040     libucrt:multibyte_initializer.obj
 0002:0000a040       $unwind$_isatty            0000000180027040     libucrt:isatty.obj
 0002:0000a048       $unwind$?dllmain_dispatch@@YAHQEAUHINSTANCE__@@KQEAX@Z 0000000180027048     LIBCMT:dll_dllmain.obj
 0002:0000a070       $unwind$?filt$0@?0??dllmain_dispatch@@YAHQEAUHINSTANCE__@@KQEAX@Z@4HA 0000000180027070     LIBCMT:dll_dllmain.obj
 0002:0000a078       $unwind$?type_case_Z@?$output_processor@_WV?$string_output_adapter@_W@__crt_stdio_output@@V?$standard_base@_WV?$string_output_adapter@_W@__crt_stdio_output@@@2@@__crt_stdio_output@@AEAA_NXZ 0000000180027078     libucrt:output.obj
 0002:0000a078       $unwind$__vcrt_getptd_noexit 0000000180027078     libvcruntime:per_thread_data.obj
 0002:0000a078       $unwind$??$common_lseek_nolock@_J@@YA_JH_JH@Z 0000000180027078     libucrt:lseek.obj
 0002:0000a078       $unwind$?type_case_n@?$output_processor@_WV?$stream_output_adapter@_W@__crt_stdio_output@@V?$standard_base@_WV?$stream_output_adapter@_W@__crt_stdio_output@@@2@@__crt_stdio_output@@AEAA_NXZ 0000000180027078     libucrt:output.obj
 0002:0000a078       $unwind$?type_case_s@?$output_processor@_WV?$string_output_adapter@_W@__crt_stdio_output@@V?$standard_base@_WV?$string_output_adapter@_W@__crt_stdio_output@@@2@@__crt_stdio_output@@AEAA_NXZ 0000000180027078     libucrt:output.obj
 0002:0000a078       $unwind$__acrt_stdio_flush_and_write_wide_nolock 0000000180027078     libucrt:_flsbuf.obj
 0002:0000a078       $unwind$_exception_enabled 0000000180027078     libucrt:libm_error.obj
 0002:0000a078       $unwind$_DllMainCRTStartup 0000000180027078     LIBCMT:dll_dllmain.obj
 0002:0000a078       $unwind$?type_case_s@?$output_processor@_WV?$stream_output_adapter@_W@__crt_stdio_output@@V?$standard_base@_WV?$stream_output_adapter@_W@__crt_stdio_output@@@2@@__crt_stdio_output@@AEAA_NXZ 0000000180027078     libucrt:output.obj
 0002:0000a078       $unwind$?type_case_Z@?$output_processor@_WV?$stream_output_adapter@_W@__crt_stdio_output@@V?$standard_base@_WV?$stream_output_adapter@_W@__crt_stdio_output@@@2@@__crt_stdio_output@@AEAA_NXZ 0000000180027078     libucrt:output.obj
 0002:0000a078       $unwind$?type_case_n@?$output_processor@_WV?$string_output_adapter@_W@__crt_stdio_output@@V?$standard_base@_WV?$string_output_adapter@_W@__crt_stdio_output@@@2@@__crt_stdio_output@@AEAA_NXZ 0000000180027078     libucrt:output.obj
 0002:0000a078       $unwind$??0_LocaleUpdate@@QEAA@QEAU__crt_locale_pointers@@@Z 0000000180027078     libucrt:strtox.obj
 0002:0000a078       $unwind$__acrt_stdio_flush_nolock 0000000180027078     libucrt:fflush.obj
 0002:0000a078       $unwind$__acrt_stdio_flush_and_write_narrow_nolock 0000000180027078     libucrt:_flsbuf.obj
 0002:0000a078       $unwind$?free_crt_array_internal@@YAXQEAPEBX_K@Z 0000000180027078     libucrt:inittime.obj
 0002:0000a078       $unwind$?type_case_n@?$output_processor@DV?$string_output_adapter@D@__crt_stdio_output@@V?$format_validation_base@DV?$string_output_adapter@D@__crt_stdio_output@@@2@@__crt_stdio_output@@AEAA_NXZ 0000000180027078     libucrt:output.obj
 0002:0000a078       $unwind$__vcrt_InitializeCriticalSectionEx 0000000180027078     libvcruntime:winapi_downlevel.obj
 0002:0000a078       $unwind$?CatchTryBlock@__FrameHandler3@@SAPEBU_s_TryBlockMapEntry@@PEBU_s_FuncInfo@@H@Z 0000000180027078     libvcruntime:risctrnsctrl.obj
 0002:0000a078       $unwind$?FrameUnwindToEmptyState@__FrameHandler3@@SAXPEA_KPEAU_xDISPATCHER_CONTEXT@@PEBU_s_FuncInfo@@@Z 0000000180027078     libvcruntime:risctrnsctrl.obj
 0002:0000a078       $unwind$memcpy_s           0000000180027078     libucrt:cfout.obj
 0002:0000a078       $unwind$__acrt_InitializeCriticalSectionEx 0000000180027078     libucrt:winapi_thunks.obj
 0002:0000a078       $unwind$__acrt_execute_initializers 0000000180027078     libucrt:shared_initialization.obj
 0002:0000a088       $unwind$__report_securityfailure 0000000180027088     LIBCMT:gs_report.obj
 0002:0000a090       $unwind$__report_gsfailure 0000000180027090     LIBCMT:gs_report.obj
 0002:0000a098       $unwind$capture_current_context 0000000180027098     LIBCMT:gs_report.obj
 0002:0000a0a4       $unwind$capture_previous_context 00000001800270a4     LIBCMT:gs_report.obj
 0002:0000a0b0       $unwind$?__scrt_throw_std_bad_array_new_length@@YAXXZ 00000001800270b0     LIBCMT:throw_bad_alloc.obj
 0002:0000a0b0       $unwind$_raise_exc         00000001800270b0     libucrt:fpexcept.obj
 0002:0000a0b0       $unwind$?__scrt_throw_std_bad_alloc@@YAXXZ 00000001800270b0     LIBCMT:throw_bad_alloc.obj
 0002:0000a0b8       $unwind$__security_init_cookie 00000001800270b8     LIBCMT:gs_support.obj
 0002:0000a0c4       $unwind$__scrt_is_nonwritable_in_current_image 00000001800270c4     LIBCMT:utility.obj
 0002:0000a0e4       $unwind$__scrt_is_nonwritable_in_current_image$filt$0 00000001800270e4     LIBCMT:utility.obj
 0002:0000a0ec       $unwind$?getSystemCP@@YAHH@Z 00000001800270ec     libucrt:mbctype.obj
 0002:0000a0ec       $unwind$isdigit            00000001800270ec     libucrt:_ctype.obj
 0002:0000a0ec       $unwind$__scrt_initialize_onexit_tables 00000001800270ec     LIBCMT:utility.obj
 0002:0000a0ec       $unwind$_isleadbyte_l      00000001800270ec     libucrt:_wctype.obj
 0002:0000a0ec       $unwind$__dcrt_lowio_ensure_console_output_initialized 00000001800270ec     libucrt:initcon.obj
 0002:0000a0f4       $unwind$__acrt_show_wide_message_box 00000001800270f4     libucrt:crtmbox.obj
 0002:0000a0f4       $unwind$??$common_xtox@K_W@@YAHKQEA_W_KI_N@Z 00000001800270f4     libucrt:xtoa.obj
 0002:0000a0f4       $unwind$__scrt_dllmain_exception_filter 00000001800270f4     LIBCMT:utility.obj
 0002:0000a0f4       $unwind$_initterm          00000001800270f4     libucrt:initterm.obj
 0002:0000a0f4       $unwind$__acrt_free_locale 00000001800270f4     libucrt:locale_refcounting.obj
 0002:0000a0f4       $unwind$??$ensure_buffer_is_big_enough@_W@formatting_buffer@__crt_stdio_output@@QEAA_N_K@Z 00000001800270f4     libucrt:output.obj
 0002:0000a0f4       $unwind$?setSBCS@@YAXPEAU__crt_multibyte_data@@@Z 00000001800270f4     libucrt:mbctype.obj
 0002:0000a0f4       $unwind$__acrt_lowio_create_handle_array 00000001800270f4     libucrt:osfinfo.obj
 0002:0000a0f4       $unwind$?Is_bad_exception_allowed@@YAEPEBU_s_ESTypeList@@@Z 00000001800270f4     libvcruntime:frame.obj
 0002:0000a0f4       $unwind$_seh_filter_exe    00000001800270f4     libucrt:exception_filter.obj
 0002:0000a0f4       $unwind$??$ensure_buffer_is_big_enough@D@formatting_buffer@__crt_stdio_output@@QEAA_N_K@Z 00000001800270f4     libucrt:output.obj
 0002:0000a0f4       $unwind$_wassert           00000001800270f4     libucrt:assert.obj
 0002:0000a0f4       $unwind$?GetHandlerSearchState@__FrameHandler3@@SAHPEA_KPEAU_xDISPATCHER_CONTEXT@@PEBU_s_FuncInfo@@@Z 00000001800270f4     libvcruntime:frame.obj
 0002:0000a0f4       $unwind$_recalloc_base     00000001800270f4     libucrt:recalloc.obj
 0002:0000a108       $unwind$__scrt_fastfail    0000000180027108     LIBCMT:utility_desktop.obj
 0002:0000a118       $unwind$__isa_available_init 0000000180027118     LIBCMT:_cpu_disp_.obj
 0002:0000a130       $xdatasym                  0000000180027130     LIBCMT:_guard_dispatch_.obj
 0002:0000a134       $unwind$__C_specific_handler 0000000180027134     libvcruntime:_riscchandler_.obj
 0002:0000a150       $unwind$?initialize_stdio_handles_nolock@@YAXXZ 0000000180027150     libucrt:ioinit.obj
 0002:0000a150       $unwind$__std_exception_copy 0000000180027150     libvcruntime:std_exception.obj
 0002:0000a150       $unwind$_free_osfhnd       0000000180027150     libucrt:osfinfo.obj
 0002:0000a164       $unwind$_CxxThrowException 0000000180027164     libvcruntime:throw.obj
 0002:0000a178       $xdatasym                  0000000180027178     libvcruntime:memset.obj
 0002:0000a188       $xdatasym                  0000000180027188     libvcruntime:_notify_.obj
 0002:0000a194       $unwind$__DestructExceptionObject 0000000180027194     libvcruntime:ehhelpers.obj
 0002:0000a1b4       $unwind$__vcrt_initialize_winapi_thunks 00000001800271b4     libvcruntime:winapi_downlevel.obj
 0002:0000a1b4       $unwind$__acrt_initialize_winapi_thunks 00000001800271b4     libucrt:winapi_thunks.obj
 0002:0000a1bc       $unwind$__vcrt_uninitialize_winapi_thunks 00000001800271bc     libvcruntime:winapi_downlevel.obj
 0002:0000a1bc       $unwind$__acrt_stdio_end_temporary_buffering_nolock 00000001800271bc     libucrt:_sftbuf.obj
 0002:0000a1c4       $unwind$?try_get_function@@YAPEAXW4function_id@?A0x391cf84c@@QEBDQEBW4module_id@2@2@Z 00000001800271c4     libucrt:winapi_thunks.obj
 0002:0000a1c4       $unwind$??R<lambda_f03950bc5685219e0bcd2087efbe011e>@@QEBAHXZ 00000001800271c4     libucrt:onexit.obj
 0002:0000a1c4       $unwind$?IsInExceptionSpec@@YAEPEAUEHExceptionRecord@@PEBU_s_ESTypeList@@@Z 00000001800271c4     libvcruntime:frame.obj
 0002:0000a1c4       $unwind$?try_get_function@@YAPEAXW4function_id@?A0xcc2f1bd3@@QEBDQEBW4module_id@2@2@Z 00000001800271c4     libvcruntime:winapi_downlevel.obj
 0002:0000a1e0       $unwind$?GetEstablisherFrame@__FrameHandler3@@SAPEA_KPEA_KPEAU_xDISPATCHER_CONTEXT@@PEBU_s_FuncInfo@@0@Z 00000001800271e0     libvcruntime:risctrnsctrl.obj
 0002:0000a1f8       $unwind$?UnwindNestedFrames@__FrameHandler3@@SAXPEA_KPEAUEHExceptionRecord@@PEAU_CONTEXT@@0PEAXPEBU_s_FuncInfo@@HHPEBU_s_HandlerType@@PEAU_xDISPATCHER_CONTEXT@@E@Z 00000001800271f8     libvcruntime:risctrnsctrl.obj
 0002:0000a20c       $unwind$?GetRangeOfTrysToCheck@__FrameHandler3@@SA?AU?$pair@Viterator@TryBlockMap@__FrameHandler3@@V123@@std@@AEAVTryBlockMap@1@HH@Z 000000018002720c     libvcruntime:risctrnsctrl.obj
 0002:0000a224       $unwind$__CxxFrameHandler3 0000000180027224     libvcruntime:risctrnsctrl.obj
 0002:0000a234       $unwind$??$_CallSETranslator@V__FrameHandler3@@@@YAHPEAUEHExceptionRecord@@PEA_KPEAU_CONTEXT@@PEAU_xDISPATCHER_CONTEXT@@PEBU_s_FuncInfo@@K1@Z 0000000180027234     libvcruntime:risctrnsctrl.obj
 0002:0000a254       $unwind$?filt$0@?0???$_CallSETranslator@V__FrameHandler3@@@@YAHPEAUEHExceptionRecord@@PEA_KPEAU_CONTEXT@@PEAU_xDISPATCHER_CONTEXT@@PEBU_s_FuncInfo@@K1@Z@4HA 0000000180027254     libvcruntime:risctrnsctrl.obj
 0002:0000a260       $xdatasym                  0000000180027260     libvcruntime:memcpy.obj
 0002:0000a270       $unwind$?FrameUnwindToState@__FrameHandler3@@SAXPEA_KPEAU_xDISPATCHER_CONTEXT@@PEBU_s_FuncInfo@@H@Z 0000000180027270     libvcruntime:frame.obj
 0002:0000a2bc       $unwind$?CxxCallCatchBlock@__FrameHandler3@@SAPEAXPEAU_EXCEPTION_RECORD@@@Z 00000001800272bc     libvcruntime:frame.obj
 0002:0000a2f8       $unwind$?fin$1@?0??CxxCallCatchBlock@__FrameHandler3@@SAPEAXPEAU_EXCEPTION_RECORD@@@Z@4HA 00000001800272f8     libvcruntime:frame.obj
 0002:0000a304       $unwind$??$__InternalCxxFrameHandler@V__FrameHandler3@@@@YA?AW4_EXCEPTION_DISPOSITION@@PEAUEHExceptionRecord@@PEA_KPEAU_CONTEXT@@PEAU_xDISPATCHER_CONTEXT@@PEBU_s_FuncInfo@@H1E@Z 0000000180027304     libvcruntime:frame.obj
 0002:0000a31c       $unwind$??$TypeMatchHelper@$$CBU_s_HandlerType@@@@YAHPEBU_s_HandlerType@@PEBU_s_CatchableType@@PEBU_s_ThrowInfo@@@Z 000000018002731c     libvcruntime:frame.obj
 0002:0000a31c       $unwind$__acrt_initialize_stdio 000000018002731c     libucrt:_file.obj
 0002:0000a31c       $unwind$__GSHandlerCheck_EH 000000018002731c     LIBCMT:gshandlereh.obj
 0002:0000a334       $unwind$??$BuildCatchObjectHelperInternal@$$CBU_s_HandlerType@@@@YAHPEAUEHExceptionRecord@@PEAXPEBU_s_HandlerType@@PEBU_s_CatchableType@@@Z 0000000180027334     libvcruntime:frame.obj
 0002:0000a374       $unwind$??$BuildCatchObjectInternal@$$CBU_s_HandlerType@@@@YAXPEAUEHExceptionRecord@@PEAXPEBU_s_HandlerType@@PEBU_s_CatchableType@@@Z 0000000180027374     libvcruntime:frame.obj
 0002:0000a3a0       $unwind$??$FindHandler@V__FrameHandler3@@@@YAXPEAUEHExceptionRecord@@PEA_KPEAU_CONTEXT@@PEAU_xDISPATCHER_CONTEXT@@PEBU_s_FuncInfo@@EH1@Z 00000001800273a0     libvcruntime:frame.obj
 0002:0000a3bc       $unwind$??$CatchIt@V__FrameHandler3@@@@YAXPEAUEHExceptionRecord@@PEA_KPEAU_CONTEXT@@PEAU_xDISPATCHER_CONTEXT@@PEBU_s_FuncInfo@@PEBU_s_HandlerType@@PEBU_s_CatchableType@@PEBU_s_TryBlockMapEntry@@H1EE@Z 00000001800273bc     libvcruntime:frame.obj
 0002:0000a3d4       $unwind$??$FindHandlerForForeignException@V__FrameHandler3@@@@YAXPEAUEHExceptionRecord@@PEA_KPEAU_CONTEXT@@PEAU_xDISPATCHER_CONTEXT@@PEBU_s_FuncInfo@@HH1@Z 00000001800273d4     libvcruntime:frame.obj
 0002:0000a3f0       $xdatasym                  00000001800273f0     libvcruntime:handlers.obj
 0002:0000a400       $unwind$wctomb_s           0000000180027400     libucrt:wctomb.obj
 0002:0000a400       $unwind$strtol             0000000180027400     libucrt:strtox.obj
 0002:0000a400       $unwind$_strtoui64         0000000180027400     libucrt:strtox.obj
 0002:0000a400       $unwind$_invalid_parameter_noinfo 0000000180027400     libucrt:invalid_parameter.obj
 0002:0000a400       $unwind$wcstol             0000000180027400     libucrt:strtox.obj
 0002:0000a400       $unwind$_itow_s            0000000180027400     libucrt:xtoa.obj
 0002:0000a400       $unwind$_log10_special     0000000180027400     libucrt:log_special.obj
 0002:0000a400       $unwind$_strtoi64          0000000180027400     libucrt:strtox.obj
 0002:0000a400       $unwind$fflush             0000000180027400     libucrt:fflush.obj
 0002:0000a408       $unwind$??$parse_integer@KV?$c_string_character_source@D@__crt_strtox@@@__crt_strtox@@YAKQEAU__crt_locale_pointers@@V?$c_string_character_source@D@0@H_N@Z 0000000180027408     libucrt:strtox.obj
 0002:0000a408       $unwind$??$parse_integer@_KV?$c_string_character_source@D@__crt_strtox@@@__crt_strtox@@YA_KQEAU__crt_locale_pointers@@V?$c_string_character_source@D@0@H_N@Z 0000000180027408     libucrt:strtox.obj
 0002:0000a420       $unwind$??$parse_integer@KV?$c_string_character_source@_W@__crt_strtox@@@__crt_strtox@@YAKQEAU__crt_locale_pointers@@V?$c_string_character_source@_W@0@H_N@Z 0000000180027420     libucrt:strtox.obj
 0002:0000a438       $unwind$__stdio_common_vfwprintf 0000000180027438     libucrt:output.obj
 0002:0000a440       $unwind$__stdio_common_vsnprintf_s 0000000180027440     libucrt:output.obj
 0002:0000a458       $unwind$??$common_vsprintf@Vformat_validation_base@__crt_stdio_output@@D@@YAH_KQEAD0QEBDQEAU__crt_locale_pointers@@1@Z 0000000180027458     libucrt:output.obj
 0002:0000a458       $unwind$??$common_vsprintf@Vstandard_base@__crt_stdio_output@@_W@@YAH_KQEA_W0QEB_WQEAU__crt_locale_pointers@@QEAD@Z 0000000180027458     libucrt:output.obj
 0002:0000a478       $unwind$?write_string_impl@?$output_adapter_common@_WV?$stream_output_adapter@_W@__crt_stdio_output@@@__crt_stdio_output@@IEBAXQEB_WHQEAHAEAV__crt_deferred_errno_cache@@@Z 0000000180027478     libucrt:output.obj
 0002:0000a478       $unwind$??$parse_command_line@D@@YAXPEADPEAPEAD0PEA_K2@Z 0000000180027478     libucrt:argv_parsing.obj
 0002:0000a494       $unwind$?process@?$output_processor@_WV?$string_output_adapter@_W@__crt_stdio_output@@V?$standard_base@_WV?$string_output_adapter@_W@__crt_stdio_output@@@2@@__crt_stdio_output@@QEAAHXZ 0000000180027494     libucrt:output.obj
 0002:0000a494       $unwind$?parse_int_from_format_string@?$output_processor@DV?$string_output_adapter@D@__crt_stdio_output@@V?$format_validation_base@DV?$string_output_adapter@D@__crt_stdio_output@@@2@@__crt_stdio_output@@AEAA_NQEAH@Z 0000000180027494     libucrt:output.obj
 0002:0000a494       $unwind$?process@?$output_processor@_WV?$stream_output_adapter@_W@__crt_stdio_output@@V?$standard_base@_WV?$stream_output_adapter@_W@__crt_stdio_output@@@2@@__crt_stdio_output@@QEAAHXZ 0000000180027494     libucrt:output.obj
 0002:0000a4a8       $unwind$?parse_int_from_format_string@?$output_processor@_WV?$string_output_adapter@_W@__crt_stdio_output@@V?$standard_base@_WV?$string_output_adapter@_W@__crt_stdio_output@@@2@@__crt_stdio_output@@AEAA_NQEAH@Z 00000001800274a8     libucrt:output.obj
 0002:0000a4a8       $unwind$?parse_int_from_format_string@?$output_processor@_WV?$stream_output_adapter@_W@__crt_stdio_output@@V?$standard_base@_WV?$stream_output_adapter@_W@__crt_stdio_output@@@2@@__crt_stdio_output@@AEAA_NQEAH@Z 00000001800274a8     libucrt:output.obj
 0002:0000a4bc       $unwind$?state_case_type@?$output_processor@_WV?$stream_output_adapter@_W@__crt_stdio_output@@V?$standard_base@_WV?$stream_output_adapter@_W@__crt_stdio_output@@@2@@__crt_stdio_output@@AEAA_NXZ 00000001800274bc     libucrt:output.obj
 0002:0000a4dc       $unwind$?type_case_c_tchar@?$output_processor@_WV?$stream_output_adapter@_W@__crt_stdio_output@@V?$standard_base@_WV?$stream_output_adapter@_W@__crt_stdio_output@@@2@@__crt_stdio_output@@AEAA_N_W@Z 00000001800274dc     libucrt:output.obj
 0002:0000a4dc       $unwind$?type_case_c_tchar@?$output_processor@_WV?$string_output_adapter@_W@__crt_stdio_output@@V?$standard_base@_WV?$string_output_adapter@_W@__crt_stdio_output@@@2@@__crt_stdio_output@@AEAA_N_W@Z 00000001800274dc     libucrt:output.obj
 0002:0000a4dc       $unwind$??R<lambda_ca71763b3c0644891230e4f79ea54fa6>@@QEBAHXZ 00000001800274dc     libucrt:setvbuf.obj
 0002:0000a4ec       $unwind$?type_case_a@?$output_processor@_WV?$stream_output_adapter@_W@__crt_stdio_output@@V?$standard_base@_WV?$stream_output_adapter@_W@__crt_stdio_output@@@2@@__crt_stdio_output@@AEAA_NXZ 00000001800274ec     libucrt:output.obj
 0002:0000a4ec       $unwind$?type_case_a@?$output_processor@_WV?$string_output_adapter@_W@__crt_stdio_output@@V?$standard_base@_WV?$string_output_adapter@_W@__crt_stdio_output@@@2@@__crt_stdio_output@@AEAA_NXZ 00000001800274ec     libucrt:output.obj
 0002:0000a4fc       $unwind$?type_case_integer@?$output_processor@DV?$string_output_adapter@D@__crt_stdio_output@@V?$format_validation_base@DV?$string_output_adapter@D@__crt_stdio_output@@@2@@__crt_stdio_output@@AEAA_NI_N@Z 00000001800274fc     libucrt:output.obj
 0002:0000a4fc       $unwind$?type_case_integer@?$output_processor@_WV?$stream_output_adapter@_W@__crt_stdio_output@@V?$standard_base@_WV?$stream_output_adapter@_W@__crt_stdio_output@@@2@@__crt_stdio_output@@AEAA_NI_N@Z 00000001800274fc     libucrt:output.obj
 0002:0000a4fc       $unwind$?type_case_integer@?$output_processor@_WV?$string_output_adapter@_W@__crt_stdio_output@@V?$standard_base@_WV?$string_output_adapter@_W@__crt_stdio_output@@@2@@__crt_stdio_output@@AEAA_NI_N@Z 00000001800274fc     libucrt:output.obj
 0002:0000a514       $unwind$?write_stored_string_tchar@?$output_processor@_WV?$stream_output_adapter@_W@__crt_stdio_output@@V?$standard_base@_WV?$stream_output_adapter@_W@__crt_stdio_output@@@2@@__crt_stdio_output@@AEAA_N_W@Z 0000000180027514     libucrt:output.obj
 0002:0000a528       $unwind$??R<lambda_a775ed57af18ba8e4d5dc780aa9068fe>@@QEBAHXZ 0000000180027528     libucrt:output.obj
 0002:0000a548       $unwind$?write_string@?$string_output_adapter@D@__crt_stdio_output@@QEBAXQEBDHQEAHAEAV__crt_deferred_errno_cache@@@Z 0000000180027548     libucrt:output.obj
 0002:0000a548       $unwind$??$write_multiple_characters@V?$stream_output_adapter@_W@__crt_stdio_output@@D@__crt_stdio_output@@YAXAEBV?$stream_output_adapter@_W@0@DHQEAH@Z 0000000180027548     libucrt:output.obj
 0002:0000a560       $unwind$?write_string@?$string_output_adapter@_W@__crt_stdio_output@@QEBAXQEB_WHQEAHAEAV__crt_deferred_errno_cache@@@Z 0000000180027560     libucrt:output.obj
 0002:0000a578       $unwind$?state_case_type@?$output_processor@_WV?$string_output_adapter@_W@__crt_stdio_output@@V?$standard_base@_WV?$string_output_adapter@_W@__crt_stdio_output@@@2@@__crt_stdio_output@@AEAA_NXZ 0000000180027578     libucrt:output.obj
 0002:0000a59c       $unwind$?write_stored_string_tchar@?$output_processor@_WV?$string_output_adapter@_W@__crt_stdio_output@@V?$standard_base@_WV?$string_output_adapter@_W@__crt_stdio_output@@@2@@__crt_stdio_output@@AEAA_N_W@Z 000000018002759c     libucrt:output.obj
 0002:0000a5b0       $unwind$??$write_multiple_characters@V?$string_output_adapter@_W@__crt_stdio_output@@D@__crt_stdio_output@@YAXAEBV?$string_output_adapter@_W@0@DHQEAH@Z 00000001800275b0     libucrt:output.obj
 0002:0000a5b0       $unwind$??$write_multiple_characters@V?$string_output_adapter@D@__crt_stdio_output@@D@__crt_stdio_output@@YAXAEBV?$string_output_adapter@D@0@DHQEAH@Z 00000001800275b0     libucrt:output.obj
 0002:0000a5bc       $unwind$??$type_case_integer_parse_into_buffer@_K@?$output_processor@_WV?$string_output_adapter@_W@__crt_stdio_output@@V?$standard_base@_WV?$string_output_adapter@_W@__crt_stdio_output@@@2@@__crt_stdio_output@@AEAAX_KI_N@Z 00000001800275bc     libucrt:output.obj
 0002:0000a5bc       $unwind$??$type_case_integer_parse_into_buffer@I@?$output_processor@_WV?$string_output_adapter@_W@__crt_stdio_output@@V?$standard_base@_WV?$string_output_adapter@_W@__crt_stdio_output@@@2@@__crt_stdio_output@@AEAAXII_N@Z 00000001800275bc     libucrt:output.obj
 0002:0000a5bc       $unwind$??$type_case_integer_parse_into_buffer@I@?$output_processor@_WV?$stream_output_adapter@_W@__crt_stdio_output@@V?$standard_base@_WV?$stream_output_adapter@_W@__crt_stdio_output@@@2@@__crt_stdio_output@@AEAAXII_N@Z 00000001800275bc     libucrt:output.obj
 0002:0000a5bc       $unwind$??$type_case_integer_parse_into_buffer@I@?$output_processor@DV?$string_output_adapter@D@__crt_stdio_output@@V?$format_validation_base@DV?$string_output_adapter@D@__crt_stdio_output@@@2@@__crt_stdio_output@@AEAAXII_N@Z 00000001800275bc     libucrt:output.obj
 0002:0000a5bc       $unwind$??$type_case_integer_parse_into_buffer@_K@?$output_processor@DV?$string_output_adapter@D@__crt_stdio_output@@V?$format_validation_base@DV?$string_output_adapter@D@__crt_stdio_output@@@2@@__crt_stdio_output@@AEAAX_KI_N@Z 00000001800275bc     libucrt:output.obj
 0002:0000a5bc       $unwind$??$type_case_integer_parse_into_buffer@_K@?$output_processor@_WV?$stream_output_adapter@_W@__crt_stdio_output@@V?$standard_base@_WV?$stream_output_adapter@_W@__crt_stdio_output@@@2@@__crt_stdio_output@@AEAAX_KI_N@Z 00000001800275bc     libucrt:output.obj
 0002:0000a5c4       $unwind$??$?RV<lambda_0d412022a4b28cc8a401ea49574e8ae6>@@AEAV<lambda_a775ed57af18ba8e4d5dc780aa9068fe>@@V<lambda_975a71a6baa488a08f4e15f6b0339b9e>@@@?$__crt_seh_guarded_call@H@@QEAAH$$QEAV<lambda_0d412022a4b28cc8a401ea49574e8ae6>@@AEAV<lambda_a775ed57af18ba8e4d5dc780aa9068fe>@@$$QEAV<lambda_975a71a6baa488a08f4e15f6b0339b9e>@@@Z 00000001800275c4     libucrt:output.obj
 0002:0000a5e8       $unwind$?process@?$output_processor@DV?$string_output_adapter@D@__crt_stdio_output@@V?$format_validation_base@DV?$string_output_adapter@D@__crt_stdio_output@@@2@@__crt_stdio_output@@QEAAHXZ 00000001800275e8     libucrt:output.obj
 0002:0000a5fc       $unwind$?state_case_type@?$output_processor@DV?$string_output_adapter@D@__crt_stdio_output@@V?$format_validation_base@DV?$string_output_adapter@D@__crt_stdio_output@@@2@@__crt_stdio_output@@AEAA_NXZ 00000001800275fc     libucrt:output.obj
 0002:0000a614       $unwind$?type_case_a@?$output_processor@DV?$string_output_adapter@D@__crt_stdio_output@@V?$format_validation_base@DV?$string_output_adapter@D@__crt_stdio_output@@@2@@__crt_stdio_output@@AEAA_NXZ 0000000180027614     libucrt:output.obj
 0002:0000a620       $unwind$?write_stored_string_tchar@?$output_processor@DV?$string_output_adapter@D@__crt_stdio_output@@V?$format_validation_base@DV?$string_output_adapter@D@__crt_stdio_output@@@2@@__crt_stdio_output@@AEAA_ND@Z 0000000180027620     libucrt:output.obj
 0002:0000a638       $unwind$fwprintf           0000000180027638     libucrt:assert.obj
 0002:0000a644       $unwind$swprintf           0000000180027644     libucrt:assert.obj
 0002:0000a654       $unwind$??$common_assert_to_stderr@_W@@YAXQEB_W0I@Z 0000000180027654     libucrt:assert.obj
 0002:0000a670       $unwind$??$common_assert_to_message_box@_W@@YAXQEB_W0IQEAX@Z 0000000180027670     libucrt:assert.obj
 0002:0000a68c       $unwind$??$common_assert_to_message_box_build_string@_W@@YAXQEA_W_KQEB_W2IQEAX@Z 000000018002768c     libucrt:assert.obj
 0002:0000a6ac       $unwind$strerror           00000001800276ac     libucrt:strerror.obj
 0002:0000a6b8       $unwind$?x_ismbbtype_l@@YAHPEAU__crt_locale_pointers@@IHH@Z 00000001800276b8     libucrt:ismbbyte.obj
 0002:0000a6b8       $unwind$_stricmp_l         00000001800276b8     libucrt:stricmp.obj
 0002:0000a6c8       $unwind$_query_new_handler 00000001800276c8     libucrt:new_handler.obj
 0002:0000a6e8       $unwind$?common_exit@@YAXHW4_crt_exit_cleanup_mode@@W4_crt_exit_return_mode@@@Z 00000001800276e8     libucrt:exit.obj
 0002:0000a6f4       $unwind$??R<lambda_6e4b09c48022b2350581041d5f6b0c4c>@@QEBA@XZ 00000001800276f4     libucrt:exit.obj
 0002:0000a714       $unwind$??$?RV<lambda_d80eeec6fff315bfe5c115232f3240e3>@@AEAV<lambda_6e4b09c48022b2350581041d5f6b0c4c>@@V<lambda_2358e3775559c9db80273638284d5e45>@@@?$__crt_seh_guarded_call@X@@QEAAX$$QEAV<lambda_d80eeec6fff315bfe5c115232f3240e3>@@AEAV<lambda_6e4b09c48022b2350581041d5f6b0c4c>@@$$QEAV<lambda_2358e3775559c9db80273638284d5e45>@@@Z 0000000180027714     libucrt:exit.obj
 0002:0000a738       $unwind$_configure_narrow_argv 0000000180027738     libucrt:argv_parsing.obj
 0002:0000a74c       $unwind$??$free_environment@_W@@YAXQEAPEA_W@Z 000000018002774c     libucrt:environment_initialization.obj
 0002:0000a74c       $unwind$??$free_environment@D@@YAXQEAPEAD@Z 000000018002774c     libucrt:environment_initialization.obj
 0002:0000a758       $unwind$??$create_environment@D@@YAQEAPEADQEAD@Z 0000000180027758     libucrt:environment_initialization.obj
 0002:0000a770       $unwind$_execute_onexit_table 0000000180027770     libucrt:onexit.obj
 0002:0000a778       $unwind$??$?RV<lambda_7777bce6b2f8c936911f934f8298dc43>@@AEAV<lambda_f03950bc5685219e0bcd2087efbe011e>@@V<lambda_3883c3dff614d5e0c5f61bb1ac94921c>@@@?$__crt_seh_guarded_call@H@@QEAAH$$QEAV<lambda_7777bce6b2f8c936911f934f8298dc43>@@AEAV<lambda_f03950bc5685219e0bcd2087efbe011e>@@$$QEAV<lambda_3883c3dff614d5e0c5f61bb1ac94921c>@@@Z 0000000180027778     libucrt:onexit.obj
 0002:0000a79c       $unwind$terminate          000000018002779c     libucrt:terminate.obj
 0002:0000a7c0       $xdatasym                  00000001800277c0     libucrt:strncmp.obj
 0002:0000a7c4       $unwind$__acrt_call_reportfault 00000001800277c4     libucrt:invalid_parameter.obj
 0002:0000a7e4       $unwind$__acrt_MessageBoxW 00000001800277e4     libucrt:winapi_thunks.obj
 0002:0000a7e4       $unwind$??$__acrt_convert_wcs_mbs@_WD$$A6A_KPEADPEB_W_KPEAU__crt_locale_pointers@@@ZU__crt_win32_buffer_no_resizing@@@@YAHQEB_WAEAV?$__crt_win32_buffer@DU__crt_win32_buffer_no_resizing@@@@A6A_KPEADPEB_W_KPEAU__crt_locale_pointers@@@Z5@Z 00000001800277e4     libucrt:findnextfilea.obj
 0002:0000a7e4       $unwind$_invalid_parameter 00000001800277e4     libucrt:invalid_parameter.obj
 0002:0000a7f8       $unwind$iswctype           00000001800277f8     libucrt:iswctype.obj
 0002:0000a804       $unwind$_isctype_l         0000000180027804     libucrt:isctype.obj
 0002:0000a81c       $unwind$_free_base         000000018002781c     libucrt:free_base.obj
 0002:0000a81c       $unwind$__acrt_locale_free_lc_time_if_unreferenced 000000018002781c     libucrt:locale_refcounting.obj
 0002:0000a81c       $unwind$?destroy_fls@@YAXPEAX@Z 000000018002781c     libucrt:per_thread_data.obj
 0002:0000a81c       $unwind$__acrt_locale_free_numeric 000000018002781c     libucrt:initnum.obj
 0002:0000a824       $unwind$?construct_ptd_array@@YAXQEAU__acrt_ptd@@@Z 0000000180027824     libucrt:per_thread_data.obj
 0002:0000a82c       $unwind$?destroy_ptd_array@@YAXQEAU__acrt_ptd@@@Z 000000018002782c     libucrt:per_thread_data.obj
 0002:0000a834       $unwind$??$?RV<lambda_0ae27a3a962d80f24befdcbee591983d>@@AEAV<lambda_8d0ee55de4b1038c4002e0adecdf1839>@@V<lambda_dc504788e8f1664fe9b84e20bfb512f2>@@@?$__crt_seh_guarded_call@X@@QEAAX$$QEAV<lambda_0ae27a3a962d80f24befdcbee591983d>@@AEAV<lambda_8d0ee55de4b1038c4002e0adecdf1839>@@$$QEAV<lambda_dc504788e8f1664fe9b84e20bfb512f2>@@@Z 0000000180027834     libucrt:per_thread_data.obj
 0002:0000a858       $unwind$??$?RV<lambda_aa87e3671a710a21b5dc78c0bdf72e11>@@AEAV<lambda_92619d2358a28f41a33ba319515a20b9>@@V<lambda_6992ecaafeb10aed2b74cb1fae11a551>@@@?$__crt_seh_guarded_call@X@@QEAAX$$QEAV<lambda_aa87e3671a710a21b5dc78c0bdf72e11>@@AEAV<lambda_92619d2358a28f41a33ba319515a20b9>@@$$QEAV<lambda_6992ecaafeb10aed2b74cb1fae11a551>@@@Z 0000000180027858     libucrt:per_thread_data.obj
 0002:0000a87c       $unwind$??$?RV<lambda_f2e299630e499de9f9a165e60fcd3db5>@@AEAV<lambda_2ae9d31cdba2644fcbeaf08da7c24588>@@V<lambda_40d01ff24d0e7b3814fdbdcee8eab3c7>@@@?$__crt_seh_guarded_call@X@@QEAAX$$QEAV<lambda_f2e299630e499de9f9a165e60fcd3db5>@@AEAV<lambda_2ae9d31cdba2644fcbeaf08da7c24588>@@$$QEAV<lambda_40d01ff24d0e7b3814fdbdcee8eab3c7>@@@Z 000000018002787c     libucrt:per_thread_data.obj
 0002:0000a8a0       $unwind$??$?RV<lambda_2d41944a1d46af3157314b8a01080d33>@@AEAV<lambda_8f455de75cd7d7f24b4096f044d8b9e6>@@V<lambda_aa500f224e6afead328df44964fe2772>@@@?$__crt_seh_guarded_call@X@@QEAAX$$QEAV<lambda_2d41944a1d46af3157314b8a01080d33>@@AEAV<lambda_8f455de75cd7d7f24b4096f044d8b9e6>@@$$QEAV<lambda_aa500f224e6afead328df44964fe2772>@@@Z 00000001800278a0     libucrt:per_thread_data.obj
 0002:0000a8c4       $unwind$__acrt_uninitialize_locale 00000001800278c4     libucrt:wsetlocale.obj
 0002:0000a8c4       $unwind$__acrt_get_sigabrt_handler 00000001800278c4     libucrt:signal.obj
 0002:0000a8cc       $unwind$??$?RV<lambda_410d79af7f07d98d83a3f525b3859a53>@@AEAV<lambda_3e16ef9562a7dcce91392c22ab16ea36>@@V<lambda_38119f0e861e05405d8a144b9b982f0a>@@@?$__crt_seh_guarded_call@X@@QEAAX$$QEAV<lambda_410d79af7f07d98d83a3f525b3859a53>@@AEAV<lambda_3e16ef9562a7dcce91392c22ab16ea36>@@$$QEAV<lambda_38119f0e861e05405d8a144b9b982f0a>@@@Z 00000001800278cc     libucrt:wsetlocale.obj
 0002:0000a8f4       $unwind$_tolower_l         00000001800278f4     libucrt:tolower_toupper.obj
 0002:0000a904       $unwind$?fp_format_e@@YAHQEBNQEAD_K12H_NIQEAU__crt_locale_pointers@@@Z 0000000180027904     libucrt:cvt.obj
 0002:0000a904       $unwind$_mbtowc_l          0000000180027904     libucrt:mbtowc.obj
 0002:0000a904       $unwind$__acrt_LCMapStringEx 0000000180027904     libucrt:winapi_thunks.obj
 0002:0000a918       $unwind$_wctomb_s_l        0000000180027918     libucrt:wctomb.obj
 0002:0000a928       $unwind$__acrt_fp_format   0000000180027928     libucrt:cvt.obj
 0002:0000a93c       $unwind$?fp_format_nan_or_infinity@@YAHW4__acrt_fp_class@@_NPEAD_K1@Z 000000018002793c     libucrt:cvt.obj
 0002:0000a950       $unwind$?fp_format_e_internal@@YAHQEAD_KH_NIQEAU_strflt@@2QEAU__crt_locale_pointers@@@Z 0000000180027950     libucrt:cvt.obj
 0002:0000a968       $unwind$?fp_format_a@@YAHQEBNPEAD_KQEAD2H_NIQEAU__crt_locale_pointers@@@Z 0000000180027968     libucrt:cvt.obj
 0002:0000a984       $unwind$?fp_format_f_internal@@YAHQEAD_KHQEAU_strflt@@_NQEAU__crt_locale_pointers@@@Z 0000000180027984     libucrt:cvt.obj
 0002:0000a984       $unwind$__dcrt_get_narrow_environment_from_os 0000000180027984     libucrt:get_environment_from_os.obj
 0002:0000a99c       $unwind$?fp_format_g@@YAHQEBNQEAD_K12H_NIQEAU__crt_locale_pointers@@@Z 000000018002799c     libucrt:cvt.obj
 0002:0000a9b0       $unwind$_fputwc_nolock     00000001800279b0     libucrt:fputwc.obj
 0002:0000a9cc       $unwind$__acrt_initialize_lowio 00000001800279cc     libucrt:ioinit.obj
 0002:0000a9ec       $unwind$?initialize_inherited_file_handles_nolock@@YAXXZ 00000001800279ec     libucrt:ioinit.obj
 0002:0000aa08       $unwind$??$common_xtox_s@K_W@@YAHKQEA_W_KI_N@Z 0000000180027a08     libucrt:xtoa.obj
 0002:0000aa08       $unwind$?__mbrtowc_utf8@__crt_mbstring@@YA_KPEA_WPEBD_KPEAU_Mbstatet@@@Z 0000000180027a08     libucrt:mbrtowc.obj
 0002:0000aa10       $unwind$__acrt_GetModuleFileNameA 0000000180027a10     libucrt:getmodulefilenamea.obj
 0002:0000aa28       $unwind$?common_flush_all@@YAH_N@Z 0000000180027a28     libucrt:fflush.obj
 0002:0000aa30       $unwind$??$?RV<lambda_842d9ff0dc9ef11c61343bbaebe7f885>@@AEAV<lambda_c5860995281e5c4ce005b3de8f5874ee>@@V<lambda_d90129c13df834fdcbf8d2b88dafcf2d>@@@?$__crt_seh_guarded_call@X@@QEAAX$$QEAV<lambda_842d9ff0dc9ef11c61343bbaebe7f885>@@AEAV<lambda_c5860995281e5c4ce005b3de8f5874ee>@@$$QEAV<lambda_d90129c13df834fdcbf8d2b88dafcf2d>@@@Z 0000000180027a30     libucrt:fflush.obj
 0002:0000aa54       $unwind$??$?RV<lambda_886d6c58226a84441f68b9f2b8217b83>@@AEAV<lambda_ab61a845afdef5b7c387490eaf3616ee>@@V<lambda_f7f22ab5edc0698d5f6905b0d3f44752>@@@?$__crt_seh_guarded_call@X@@QEAAX$$QEAV<lambda_886d6c58226a84441f68b9f2b8217b83>@@AEAV<lambda_ab61a845afdef5b7c387490eaf3616ee>@@$$QEAV<lambda_f7f22ab5edc0698d5f6905b0d3f44752>@@@Z 0000000180027a54     libucrt:fflush.obj
 0002:0000aa7c       $unwind$??$?RV<lambda_c376a267cfb53b6959b3b692ec76b120>@@AEAV<lambda_9a32fed5bf61b6b509b2d3f6003082a1>@@V<lambda_572fbb9fa0ab338edf41edfd4b5fcc8d>@@@?$__crt_seh_guarded_call@H@@QEAAH$$QEAV<lambda_c376a267cfb53b6959b3b692ec76b120>@@AEAV<lambda_9a32fed5bf61b6b509b2d3f6003082a1>@@$$QEAV<lambda_572fbb9fa0ab338edf41edfd4b5fcc8d>@@@Z 0000000180027a7c     libucrt:fflush.obj
 0002:0000aaa0       $unwind$setvbuf            0000000180027aa0     libucrt:setvbuf.obj
 0002:0000aaa8       $unwind$??$?RV<lambda_84ec643ea9557e2f7dc01bb0e9624395>@@AEAV<lambda_ca71763b3c0644891230e4f79ea54fa6>@@V<lambda_439a761618c59b0600e24586724d733b>@@@?$__crt_seh_guarded_call@H@@QEAAH$$QEAV<lambda_84ec643ea9557e2f7dc01bb0e9624395>@@AEAV<lambda_ca71763b3c0644891230e4f79ea54fa6>@@$$QEAV<lambda_439a761618c59b0600e24586724d733b>@@@Z 0000000180027aa8     libucrt:setvbuf.obj
 0002:0000aacc       $unwind$raise              0000000180027acc     libucrt:signal.obj
 0002:0000ab08       $unwind$??$?RV<lambda_450d765d439847d4c735a33c368b5fc0>@@AEAV<lambda_44731a7d0e6d81c3e6aa82d741081786>@@V<lambda_601a2a7da3b7a96e9554ac7215c4b07c>@@@?$__crt_seh_guarded_call@P6AXH@Z@@QEAAP6AXH@Z$$QEAV<lambda_450d765d439847d4c735a33c368b5fc0>@@AEAV<lambda_44731a7d0e6d81c3e6aa82d741081786>@@$$QEAV<lambda_601a2a7da3b7a96e9554ac7215c4b07c>@@@Z 0000000180027b08     libucrt:signal.obj
 0002:0000ab2c       $unwind$?_mbstowcs_l_helper@@YA_KPEA_WPEBD_KPEAU__crt_locale_pointers@@@Z 0000000180027b2c     libucrt:mbstowcs.obj
 0002:0000ab44       $unwind$??$common_expand_argv_wildcards@D@@YAHQEAPEADQEAPEAPEAD@Z 0000000180027b44     libucrt:argv_wildcards.obj
 0002:0000ab5c       $unwind$??$copy_and_add_argument_to_buffer@D@@YAHQEBD0_KAEAV?$argument_list@D@?A0x5f5c8891@@@Z 0000000180027b5c     libucrt:argv_wildcards.obj
 0002:0000ab78       $unwind$??$expand_argument_wildcards@D@@YAHQEAD0AEAV?$argument_list@D@?A0x5f5c8891@@@Z 0000000180027b78     libucrt:argv_wildcards.obj
 0002:0000ab98       $unwind$_setmbcp_nolock    0000000180027b98     libucrt:mbctype.obj
 0002:0000abb8       $unwind$?update_thread_multibyte_data_internal@@YAPEAU__crt_multibyte_data@@QEAU__acrt_ptd@@QEAPEAU1@@Z 0000000180027bb8     libucrt:mbctype.obj
 0002:0000abe0       $unwind$?setmbcp_internal@@YAHH_NQEAU__acrt_ptd@@QEAPEAU__crt_multibyte_data@@@Z 0000000180027be0     libucrt:mbctype.obj
 0002:0000abf0       $unwind$?setSBUpLow@@YAXPEAU__crt_multibyte_data@@@Z 0000000180027bf0     libucrt:mbctype.obj
 0002:0000ac0c       $unwind$??$?RV<lambda_efdfa57d1f175319df784efa44bb7b81>@@AEAV<lambda_5f0a4c1567f8adc6734073e5d1e1b35c>@@V<lambda_2e8a7d3640ea6ccb4c2413664c2db6fd>@@@?$__crt_seh_guarded_call@X@@QEAAX$$QEAV<lambda_efdfa57d1f175319df784efa44bb7b81>@@AEAV<lambda_5f0a4c1567f8adc6734073e5d1e1b35c>@@$$QEAV<lambda_2e8a7d3640ea6ccb4c2413664c2db6fd>@@@Z 0000000180027c0c     libucrt:mbctype.obj
 0002:0000ac30       $unwind$__acrt_WideCharToMultiByte 0000000180027c30     libucrt:widechartomultibyte.obj
 0002:0000ac30       $unwind$__GSHandlerCheckCommon 0000000180027c30     LIBCMT:_gshandler_.obj
 0002:0000ac38       $unwind$__acrt_is_interactive 0000000180027c38     libucrt:winapi_thunks.obj
 0002:0000ac4c       $unwind$__acrt_GetStringTypeA 0000000180027c4c     libucrt:getstringtypea.obj
 0002:0000ac74       $unwind$__acrt_update_thread_locale_data 0000000180027c74     libucrt:locale_refcounting.obj
 0002:0000ac98       $unwind$__acrt_locale_free_monetary 0000000180027c98     libucrt:initmon.obj
 0002:0000aca0       $unwind$__acrt_locale_free_time 0000000180027ca0     libucrt:inittime.obj
 0002:0000acb0       $unwind$__acrt_LCMapStringA 0000000180027cb0     libucrt:lcmapstringa.obj
 0002:0000acc0       $unwind$?__acrt_LCMapStringA_stat@@YAHPEAU__crt_locale_pointers@@PEB_WKPEBDHPEADHHH@Z 0000000180027cc0     libucrt:lcmapstringa.obj
 0002:0000ace8       $unwind$?__mbsrtowcs_utf8@__crt_mbstring@@YA_KPEA_WPEAPEBD_KPEAU_Mbstatet@@@Z 0000000180027ce8     libucrt:mbrtowc.obj
 0002:0000ad00       $unwind$__acrt_fltout      0000000180027d00     libucrt:cfout.obj
 0002:0000ad20       $unwind$?divide@__crt_strtox@@YA_KAEAUbig_integer@1@AEBU21@@Z 0000000180027d20     libucrt:cfout.obj
 0002:0000ad2c       $chain$0$?divide@__crt_strtox@@YA_KAEAUbig_integer@1@AEBU21@@Z 0000000180027d2c     libucrt:cfout.obj
 0002:0000ad40       $chain$6$?divide@__crt_strtox@@YA_KAEAUbig_integer@1@AEBU21@@Z 0000000180027d40     libucrt:cfout.obj
 0002:0000ad64       $chain$7$?divide@__crt_strtox@@YA_KAEAUbig_integer@1@AEBU21@@Z 0000000180027d64     libucrt:cfout.obj
 0002:0000ad78       $chain$8$?divide@__crt_strtox@@YA_KAEAUbig_integer@1@AEBU21@@Z 0000000180027d78     libucrt:cfout.obj
 0002:0000ad88       $unwind$??$write_buffer_nolock@D@@YA_NDV__crt_stdio_stream@@@Z 0000000180027d88     libucrt:_flsbuf.obj
 0002:0000ad98       $unwind$??$write_buffer_nolock@_W@@YA_N_WV__crt_stdio_stream@@@Z 0000000180027d98     libucrt:_flsbuf.obj
 0002:0000ada8       $unwind$_fcloseall         0000000180027da8     libucrt:closeall.obj
 0002:0000adcc       $unwind$__acrt_lowio_destroy_handle_array 0000000180027dcc     libucrt:osfinfo.obj
 0002:0000addc       $unwind$__acrt_lowio_ensure_fh_exists 0000000180027ddc     libucrt:osfinfo.obj
 0002:0000ae08       $unwind$_commit            0000000180027e08     libucrt:commit.obj
 0002:0000ae08       $unwind$_close             0000000180027e08     libucrt:close.obj
 0002:0000ae10       $unwind$??$?RV<lambda_a37b2b86f63e897a80ea819b0eb08c01>@@AEAV<lambda_38ce7e780aa69e748d6df282ebc68efe>@@V<lambda_99fb1378e971ab6e7edea83e3a7a83a2>@@@?$__crt_seh_guarded_call@H@@QEAAH$$QEAV<lambda_a37b2b86f63e897a80ea819b0eb08c01>@@AEAV<lambda_38ce7e780aa69e748d6df282ebc68efe>@@$$QEAV<lambda_99fb1378e971ab6e7edea83e3a7a83a2>@@@Z 0000000180027e10     libucrt:commit.obj
 0002:0000ae34       $unwind$_write             0000000180027e34     libucrt:write.obj
 0002:0000ae64       $unwind$_write_nolock      0000000180027e64     libucrt:write.obj
 0002:0000ae7c       $unwind$?write_double_translated_ansi_nolock@@YA?AUwrite_result@?A0x17268360@@HQEBDI@Z 0000000180027e7c     libucrt:write.obj
 0002:0000ae9c       $unwind$?write_text_ansi_nolock@@YA?AUwrite_result@?A0x17268360@@HQEBDI@Z 0000000180027e9c     libucrt:write.obj
 0002:0000ae9c       $unwind$?write_text_utf16le_nolock@@YA?AUwrite_result@?A0x17268360@@HQEBDI@Z 0000000180027e9c     libucrt:write.obj
 0002:0000aebc       $unwind$?write_text_utf8_nolock@@YA?AUwrite_result@?A0x17268360@@HQEBDI@Z 0000000180027ebc     libucrt:write.obj
 0002:0000aee0       $unwind$qsort              0000000180027ee0     libucrt:qsort.obj
 0002:0000aef8       $chain$4$qsort             0000000180027ef8     libucrt:qsort.obj
 0002:0000af1c       $chain$5$qsort             0000000180027f1c     libucrt:qsort.obj
 0002:0000af2c       $unwind$strpbrk            0000000180027f2c     libucrt:strpbrk.obj
 0002:0000af3c       $unwind$fallbackMethod     0000000180027f3c     libucrt:strpbrk.obj
 0002:0000af4c       $unwind$__acrt_FindFirstFileExA 0000000180027f4c     libucrt:findfirstfileexa.obj
 0002:0000af5c       $unwind$??$__acrt_convert_wcs_mbs@D_W$$A6A_KPEA_WPEBD_KPEAU__crt_locale_pointers@@@ZU__crt_win32_buffer_internal_dynamic_resizing@@@@YAHQEBDAEAV?$__crt_win32_buffer@_WU__crt_win32_buffer_internal_dynamic_resizing@@@@A6A_KPEA_WPEBD_KPEAU__crt_locale_pointers@@@Z5@Z 0000000180027f5c     libucrt:findfirstfileexa.obj
 0002:0000af74       $unwind$__acrt_FindNextFileA 0000000180027f74     libucrt:findnextfilea.obj
 0002:0000af90       $unwind$_mbsdec_l          0000000180027f90     libucrt:mbsdec.obj
 0002:0000af9c       $unwind$?GetTableIndexFromLocaleName@@YAHPEB_W@Z 0000000180027f9c     libucrt:lcidtoname_downlevel.obj
 0002:0000afb4       $unwind$?__mbrtoc32_utf8@__crt_mbstring@@YA_KPEA_UPEBD_KPEAU_Mbstatet@@@Z 0000000180027fb4     libucrt:mbrtoc32.obj
 0002:0000afd0       $xdatasym                  0000000180027fd0     libucrt:log10.obj
 0002:0000afdc       $unwind$??$common_lseek@_J@@YA_JH_JH@Z 0000000180027fdc     libucrt:lseek.obj
 0002:0000b00c       $unwind$fclose             000000018002800c     libucrt:fclose.obj
 0002:0000b030       $unwind$_putwch_nolock     0000000180028030     libucrt:putwch.obj
 0002:0000b038       $unwind$?_wcstombs_l_helper@@YA_KPEADPEB_W_KPEAU__crt_locale_pointers@@@Z 0000000180028038     libucrt:wcstombs.obj
 0002:0000b05c       $stateUnwindMap$?_wcstombs_l_helper@@YA_KPEADPEB_W_KPEAU__crt_locale_pointers@@@Z 000000018002805c     libucrt:wcstombs.obj
 0002:0000b068       $ip2state$?_wcstombs_l_helper@@YA_KPEADPEB_W_KPEAU__crt_locale_pointers@@@Z 0000000180028068     libucrt:wcstombs.obj
 0002:0000b080       $unwind$__acrt_fenv_set_control 0000000180028080     libucrt:_fenvutils.obj
 0002:0000b090       $unwind$_call_matherr      0000000180028090     libucrt:libm_error.obj
 0002:0000b098       $unwind$_handle_error      0000000180028098     libucrt:libm_error.obj
 0002:0000b0b8       $unwind$__acrt_initialize_fma3 00000001800280b8     libucrt:fma3_available.obj
 0002:0000b0c0       $unwind$_log_special_common 00000001800280c0     libucrt:log_special.obj
 0002:0000b0cc       $unwind$??$?RV<lambda_751a882b2c74d4b022dec766aa51a29a>@@AEAV<lambda_628dfdc04ba53c8bfc02c9951375f3f5>@@V<lambda_f6c7be5f7998530c34de24c7437d6b54>@@@?$__crt_seh_guarded_call@H@@QEAAH$$QEAV<lambda_751a882b2c74d4b022dec766aa51a29a>@@AEAV<lambda_628dfdc04ba53c8bfc02c9951375f3f5>@@$$QEAV<lambda_f6c7be5f7998530c34de24c7437d6b54>@@@Z 00000001800280cc     libucrt:close.obj
 0002:0000b0f0       $unwind$__dcrt_write_console 00000001800280f0     libucrt:initcon.obj
 0002:0000b104       $unwind$?__wcsrtombs_utf8@__crt_mbstring@@YA_KPEADPEAPEB_W_KPEAU_Mbstatet@@@Z 0000000180028104     libucrt:wcrtomb.obj
 0002:0000b128       $xdatasym                  0000000180028128     libucrt:fpsr.obj
 0002:0000b130       $unwind$_raise_exc_ex      0000000180028130     libucrt:fpexcept.obj
 0002:0000b144       $unwind$_ctrlfp            0000000180028144     libucrt:fpctrl.obj
 0002:0000b16c       $unwind$?DloadObtainSection@@YAPEAXPEAK0@Z 000000018002816c     DelayImp:delayhlp.obj
 0002:0000b17c       $unwind$?DloadMakePermanentImageCommit@@YAXPEAX_K@Z 000000018002817c     DelayImp:delayhlp.obj
 0002:0000b188       $unwind$?DloadProtectSection@@YAXKPEAK@Z 0000000180028188     DelayImp:delayhlp.obj
 0002:0000b198       $unwind$__delayLoadHelper2 0000000180028198     DelayImp:delayhlp.obj
 0002:0000b1b0       $unwind$_IsNonwritableInCurrentImage 00000001800281b0     LIBCMT:pesect.obj
 0002:0000b1d8       $xdatasym                  00000001800281d8     LIBCMT:_chkstk_.obj
 0002:0000b1e0       $xdatasym                  00000001800281e0     libvcruntime:memcmp.obj
 0002:0000b1e4       $unwind$strrchr            00000001800281e4     libvcruntime:strrchr.obj
 0002:0000c270       .edata                     0000000180029270     binding.exp
 0002:0000c298       rgpv                       0000000180029298     binding.exp
 0002:0000c29c       rgszName                   000000018002929c     binding.exp
 0002:0000c2a0       rgwOrd                     00000001800292a0     binding.exp
 0002:0000c2a2       szName                     00000001800292a2     binding.exp
 0002:0000c2af       $N00001                    00000001800292af     binding.exp
 0002:0000c55c       .idata$6                   000000018002955c     kernel32:KERNEL32.dll
 0003:00000030       ?__vcrt_flsindex@@3KA      000000018002a030     libvcruntime:per_thread_data.obj
 0003:00000040       ?errno_no_memory@@3HA      000000018002a040     libucrt:errno.obj
 0003:00000044       ?doserrno_no_memory@@3KA   000000018002a044     libucrt:errno.obj
 0003:00000060       ?__acrt_flsindex@@3KA      000000018002a060     libucrt:per_thread_data.obj
 0003:00000330       ?__rgctypeflag@@3PADA      000000018002a330     libucrt:mbctype.obj
 0003:00000340       ?__rgcode_page_info@@3PAUcode_page_info@@A 000000018002a340     libucrt:mbctype.obj
 0003:00000660       _mbctypes                  000000018002a660     libucrt:mbctype.obj
 0003:00000770       _mbcasemaps                000000018002a770     libucrt:mbctype.obj
 0003:00000920       ?__dcrt_lowio_console_output_handle@@3PEAXEA 000000018002a920     libucrt:initcon.obj
 0003:00000930       ?dazSupported@?1??_ctrlfp@@9@9 000000018002a930     libucrt:fpctrl.obj
 0003:00000950       _module                    000000018002a950     binding.obj
 0003:00000bc8       ?__proc_attached@@3HA      000000018002abc8     LIBCMT:dll_dllmain.obj
 0003:00000bd0       GS_ExceptionRecord         000000018002abd0     LIBCMT:gs_report.obj
 0003:00000c70       GS_ContextRecord           000000018002ac70     LIBCMT:gs_report.obj
 0003:00001168       ?is_initialized_as_dll@@3_NA 000000018002b168     LIBCMT:utility.obj
 0003:00001169       ?module_local_atexit_table_initialized@@3_NA 000000018002b169     LIBCMT:utility.obj
 0003:00001170       ?module_local_atexit_table@@3U_onexit_table_t@@A 000000018002b170     LIBCMT:utility.obj
 0003:00001188       ?module_local_at_quick_exit_table@@3U_onexit_table_t@@A 000000018002b188     LIBCMT:utility.obj
 0003:000011f0       ?heap@@3V_HeapManager@@A   000000018002b1f0     libvcruntime:undname.obj
 0003:00001220       ?__vcrt_startup_thread_ptd@@3U__vcrt_ptd@@A 000000018002b220     libvcruntime:per_thread_data.obj
 0003:000012b0       __vcrt_lock_table          000000018002b2b0     libvcruntime:locks.obj
 0003:000012d8       __vcrt_locks_initialized   000000018002b2d8     libvcruntime:locks.obj
 0003:000012e0       ?module_handles@@3PAPEAUHINSTANCE__@@A 000000018002b2e0     libvcruntime:winapi_downlevel.obj
 0003:000012f8       ?encoded_function_pointers@@3PAPEAXA 000000018002b2f8     libvcruntime:winapi_downlevel.obj
 0003:00001328       ?__acrt_new_handler@@3V?$dual_state_global@P6AH_K@Z@__crt_state_management@@A 000000018002b328     libucrt:new_handler.obj
 0003:00001330       ?c_termination_complete@@3JA 000000018002b330     libucrt:exit.obj
 0003:00001338       ?thread_local_exit_callback_func@@3P6AXPEAXK0@ZEA 000000018002b338     libucrt:exit.obj
 0003:00001350       ?program_name@?1???$common_configure_argv@D@@YAHW4_crt_argv_mode@@@Z@4PADA 000000018002b350     libucrt:argv_parsing.obj
 0003:000014a8       ?__acrt_invalid_parameter_handler@@3V?$dual_state_global@P6AXPEB_W00I_K@Z@__crt_state_management@@A 000000018002b4a8     libucrt:invalid_parameter.obj
 0003:000014c0       ?internal_state@?1??_mbtowc_l@@9@4U_Mbstatet@@A 000000018002b4c0     libucrt:mbtowc.obj
 0003:000014e0       ?enable_percent_n@@3_KA    000000018002b4e0     libucrt:printf_count_output.obj
 0003:00001904       ?__acrt_app_type@@3W4_crt_app_type@@A 000000018002b904     libucrt:report_runtime_error.obj
 0003:00001908       __acrt_error_mode          000000018002b908     libucrt:set_error_mode.obj
 0003:00001910       ?ctrlc_action@@3V?$dual_state_global@P6AXH@Z@__crt_state_management@@A 000000018002b910     libucrt:signal.obj
 0003:00001918       ?ctrlbreak_action@@3V?$dual_state_global@P6AXH@Z@__crt_state_management@@A 000000018002b918     libucrt:signal.obj
 0003:00001920       ?abort_action@@3V?$dual_state_global@P6AXH@Z@__crt_state_management@@A 000000018002b920     libucrt:signal.obj
 0003:00001928       ?term_action@@3V?$dual_state_global@P6AXH@Z@__crt_state_management@@A 000000018002b928     libucrt:signal.obj
 0003:00001930       ?__acrt_lock_table@@3PAU_RTL_CRITICAL_SECTION@@A 000000018002b930     libucrt:locks.obj
 0003:00001b60       ?__acrt_locks_initialized@@3IA 000000018002bb60     libucrt:locks.obj
 0003:00001b64       ?state_cache@?1???$get_cached_win_policy@Udeveloper_information_policy_properties@?1??__acrt_get_developer_information_policy@@YA?AW4developer_information_policy@@XZ@@@YA?AW4developer_information_policy@@W4AppPolicyShowDeveloperDiagnostic@@@Z@4JA 000000018002bb64     libucrt:win_policies.obj
 0003:00001b68       ?state_cache@?1???$get_cached_win_policy@Uwindowing_model_policy_properties@?1??__acrt_get_windowing_model_policy@@YA?AW4windowing_model_policy@@XZ@@@YA?AW4windowing_model_policy@@W4AppPolicyWindowingModel@@@Z@4JA 000000018002bb68     libucrt:win_policies.obj
 0003:00001b88       ?fSystemSet@@3HA           000000018002bb88     libucrt:mbctype.obj
 0003:00001b8c       ?initialized@?1??__acrt_initialize_multibyte@@9@4_NA 000000018002bb8c     libucrt:mbctype.obj
 0003:00001bc0       ?module_handles@@3PAPEAUHINSTANCE__@@A 000000018002bbc0     libucrt:winapi_thunks.obj
 0003:00001c60       ?encoded_function_pointers@@3PAPEAXA 000000018002bc60     libucrt:winapi_thunks.obj
 0003:00001d78       ?user_matherr@@3V?$dual_state_global@P6AHPEAU_exception@@@Z@__crt_state_management@@A 000000018002bd78     libucrt:matherr.obj
 0003:00001d88       ?__acrt_global_new_mode@@3V?$dual_state_global@J@__crt_state_management@@A 000000018002bd88     libucrt:new_mode.obj
 0003:00001d90       ?internal_pst@?1??__mbrtoc32_utf8@__crt_mbstring@@YA_KPEA_UPEBD_KPEAU_Mbstatet@@@Z@4U3@A 000000018002bd90     libucrt:mbrtoc32.obj
 0003:00001da0       ?internal_pst@?1??__c16rtomb_utf8@__crt_mbstring@@YA_KPEAD_SPEAU_Mbstatet@@@Z@4U3@A 000000018002bda0     libucrt:c16rtomb.obj
 0004:00000000       $pdata$_snprintf_s         000000018002c000     binding.obj
 0004:0000000c       $pdata$?FunctionCallbackWrapper@imp@Nan@@YAXAEBV?$FunctionCallbackInfo@VValue@v8@@@v8@@@Z 000000018002c00c     binding.obj
 0004:00000018       $pdata$?ForceSet@Nan@@YA?AV?$Maybe@_N@1@V?$Local@VObject@v8@@@v8@@V?$Local@VValue@v8@@@4@1W4PropertyAttribute@4@@Z 000000018002c018     binding.obj
 0004:00000024       $pdata$?ThrowError@Nan@@YAXPEBD@Z 000000018002c024     binding.obj
 0004:00000030       $pdata$?ThrowTypeError@Nan@@YAXPEBD@Z 000000018002c030     binding.obj
 0004:0000003c       $pdata$?GetInt64@?A0x8d67e32c@@YA_JV?$Local@VValue@v8@@@v8@@@Z 000000018002c03c     binding.obj
 0004:00000048       $pdata$0$?GetInt64@?A0x8d67e32c@@YA_JV?$Local@VValue@v8@@@v8@@@Z 000000018002c048     binding.obj
 0004:00000054       $pdata$1$?GetInt64@?A0x8d67e32c@@YA_JV?$Local@VValue@v8@@@v8@@@Z 000000018002c054     binding.obj
 0004:00000060       $pdata$?Address@?A0x8d67e32c@@YAXAEBV?$FunctionCallbackInfo@VValue@v8@@@Nan@@@Z 000000018002c060     binding.obj
 0004:0000006c       $pdata$1$?Address@?A0x8d67e32c@@YAXAEBV?$FunctionCallbackInfo@VValue@v8@@@Nan@@@Z 000000018002c06c     binding.obj
 0004:00000078       $pdata$2$?Address@?A0x8d67e32c@@YAXAEBV?$FunctionCallbackInfo@VValue@v8@@@Nan@@@Z 000000018002c078     binding.obj
 0004:00000084       $pdata$3$?Address@?A0x8d67e32c@@YAXAEBV?$FunctionCallbackInfo@VValue@v8@@@Nan@@@Z 000000018002c084     binding.obj
 0004:00000090       $pdata$?HexAddress@?A0x8d67e32c@@YAXAEBV?$FunctionCallbackInfo@VValue@v8@@@Nan@@@Z 000000018002c090     binding.obj
 0004:0000009c       $pdata$0$?HexAddress@?A0x8d67e32c@@YAXAEBV?$FunctionCallbackInfo@VValue@v8@@@Nan@@@Z 000000018002c09c     binding.obj
 0004:000000a8       $pdata$1$?HexAddress@?A0x8d67e32c@@YAXAEBV?$FunctionCallbackInfo@VValue@v8@@@Nan@@@Z 000000018002c0a8     binding.obj
 0004:000000b4       $pdata$?IsNull@?A0x8d67e32c@@YAXAEBV?$FunctionCallbackInfo@VValue@v8@@@Nan@@@Z 000000018002c0b4     binding.obj
 0004:000000c0       $pdata$0$?IsNull@?A0x8d67e32c@@YAXAEBV?$FunctionCallbackInfo@VValue@v8@@@Nan@@@Z 000000018002c0c0     binding.obj
 0004:000000cc       $pdata$1$?IsNull@?A0x8d67e32c@@YAXAEBV?$FunctionCallbackInfo@VValue@v8@@@Nan@@@Z 000000018002c0cc     binding.obj
 0004:000000d8       $pdata$?WrapPointer@?A0x8d67e32c@@YA?AV?$Local@VValue@v8@@@v8@@PEAD_K@Z 000000018002c0d8     binding.obj
 0004:000000e4       $pdata$?ReadObject@?A0x8d67e32c@@YAXAEBV?$FunctionCallbackInfo@VValue@v8@@@Nan@@@Z 000000018002c0e4     binding.obj
 0004:000000f0       $pdata$0$?ReadObject@?A0x8d67e32c@@YAXAEBV?$FunctionCallbackInfo@VValue@v8@@@Nan@@@Z 000000018002c0f0     binding.obj
 0004:000000fc       $pdata$1$?ReadObject@?A0x8d67e32c@@YAXAEBV?$FunctionCallbackInfo@VValue@v8@@@Nan@@@Z 000000018002c0fc     binding.obj
 0004:00000108       $pdata$?WriteObject@?A0x8d67e32c@@YAXAEBV?$FunctionCallbackInfo@VValue@v8@@@Nan@@@Z 000000018002c108     binding.obj
 0004:00000114       $pdata$?ReadPointer@?A0x8d67e32c@@YAXAEBV?$FunctionCallbackInfo@VValue@v8@@@Nan@@@Z 000000018002c114     binding.obj
 0004:00000120       $pdata$1$?ReadPointer@?A0x8d67e32c@@YAXAEBV?$FunctionCallbackInfo@VValue@v8@@@Nan@@@Z 000000018002c120     binding.obj
 0004:0000012c       $pdata$2$?ReadPointer@?A0x8d67e32c@@YAXAEBV?$FunctionCallbackInfo@VValue@v8@@@Nan@@@Z 000000018002c12c     binding.obj
 0004:00000138       $pdata$4$?ReadPointer@?A0x8d67e32c@@YAXAEBV?$FunctionCallbackInfo@VValue@v8@@@Nan@@@Z 000000018002c138     binding.obj
 0004:00000144       $pdata$6$?ReadPointer@?A0x8d67e32c@@YAXAEBV?$FunctionCallbackInfo@VValue@v8@@@Nan@@@Z 000000018002c144     binding.obj
 0004:00000150       $pdata$?WritePointer@?A0x8d67e32c@@YAXAEBV?$FunctionCallbackInfo@VValue@v8@@@Nan@@@Z 000000018002c150     binding.obj
 0004:0000015c       $pdata$1$?WritePointer@?A0x8d67e32c@@YAXAEBV?$FunctionCallbackInfo@VValue@v8@@@Nan@@@Z 000000018002c15c     binding.obj
 0004:00000168       $pdata$2$?WritePointer@?A0x8d67e32c@@YAXAEBV?$FunctionCallbackInfo@VValue@v8@@@Nan@@@Z 000000018002c168     binding.obj
 0004:00000174       $pdata$?ReadInt64@?A0x8d67e32c@@YAXAEBV?$FunctionCallbackInfo@VValue@v8@@@Nan@@@Z 000000018002c174     binding.obj
 0004:00000180       $pdata$0$?ReadInt64@?A0x8d67e32c@@YAXAEBV?$FunctionCallbackInfo@VValue@v8@@@Nan@@@Z 000000018002c180     binding.obj
 0004:0000018c       $pdata$1$?ReadInt64@?A0x8d67e32c@@YAXAEBV?$FunctionCallbackInfo@VValue@v8@@@Nan@@@Z 000000018002c18c     binding.obj
 0004:00000198       $pdata$2$?ReadInt64@?A0x8d67e32c@@YAXAEBV?$FunctionCallbackInfo@VValue@v8@@@Nan@@@Z 000000018002c198     binding.obj
 0004:000001a4       $pdata$3$?ReadInt64@?A0x8d67e32c@@YAXAEBV?$FunctionCallbackInfo@VValue@v8@@@Nan@@@Z 000000018002c1a4     binding.obj
 0004:000001b0       $pdata$?WriteInt64@?A0x8d67e32c@@YAXAEBV?$FunctionCallbackInfo@VValue@v8@@@Nan@@@Z 000000018002c1b0     binding.obj
 0004:000001bc       $pdata$1$?WriteInt64@?A0x8d67e32c@@YAXAEBV?$FunctionCallbackInfo@VValue@v8@@@Nan@@@Z 000000018002c1bc     binding.obj
 0004:000001c8       $pdata$2$?WriteInt64@?A0x8d67e32c@@YAXAEBV?$FunctionCallbackInfo@VValue@v8@@@Nan@@@Z 000000018002c1c8     binding.obj
 0004:000001d4       $pdata$?ReadUInt64@?A0x8d67e32c@@YAXAEBV?$FunctionCallbackInfo@VValue@v8@@@Nan@@@Z 000000018002c1d4     binding.obj
 0004:000001e0       $pdata$0$?ReadUInt64@?A0x8d67e32c@@YAXAEBV?$FunctionCallbackInfo@VValue@v8@@@Nan@@@Z 000000018002c1e0     binding.obj
 0004:000001ec       $pdata$1$?ReadUInt64@?A0x8d67e32c@@YAXAEBV?$FunctionCallbackInfo@VValue@v8@@@Nan@@@Z 000000018002c1ec     binding.obj
 0004:000001f8       $pdata$2$?ReadUInt64@?A0x8d67e32c@@YAXAEBV?$FunctionCallbackInfo@VValue@v8@@@Nan@@@Z 000000018002c1f8     binding.obj
 0004:00000204       $pdata$3$?ReadUInt64@?A0x8d67e32c@@YAXAEBV?$FunctionCallbackInfo@VValue@v8@@@Nan@@@Z 000000018002c204     binding.obj
 0004:00000210       $pdata$?WriteUInt64@?A0x8d67e32c@@YAXAEBV?$FunctionCallbackInfo@VValue@v8@@@Nan@@@Z 000000018002c210     binding.obj
 0004:0000021c       $pdata$1$?WriteUInt64@?A0x8d67e32c@@YAXAEBV?$FunctionCallbackInfo@VValue@v8@@@Nan@@@Z 000000018002c21c     binding.obj
 0004:00000228       $pdata$2$?WriteUInt64@?A0x8d67e32c@@YAXAEBV?$FunctionCallbackInfo@VValue@v8@@@Nan@@@Z 000000018002c228     binding.obj
 0004:00000234       $pdata$?ReadCString@?A0x8d67e32c@@YAXAEBV?$FunctionCallbackInfo@VValue@v8@@@Nan@@@Z 000000018002c234     binding.obj
 0004:00000240       $pdata$0$?ReadCString@?A0x8d67e32c@@YAXAEBV?$FunctionCallbackInfo@VValue@v8@@@Nan@@@Z 000000018002c240     binding.obj
 0004:0000024c       $pdata$1$?ReadCString@?A0x8d67e32c@@YAXAEBV?$FunctionCallbackInfo@VValue@v8@@@Nan@@@Z 000000018002c24c     binding.obj
 0004:00000258       $pdata$?ReinterpretBuffer@?A0x8d67e32c@@YAXAEBV?$FunctionCallbackInfo@VValue@v8@@@Nan@@@Z 000000018002c258     binding.obj
 0004:00000264       $pdata$0$?ReinterpretBuffer@?A0x8d67e32c@@YAXAEBV?$FunctionCallbackInfo@VValue@v8@@@Nan@@@Z 000000018002c264     binding.obj
 0004:00000270       $pdata$1$?ReinterpretBuffer@?A0x8d67e32c@@YAXAEBV?$FunctionCallbackInfo@VValue@v8@@@Nan@@@Z 000000018002c270     binding.obj
 0004:0000027c       $pdata$2$?ReinterpretBuffer@?A0x8d67e32c@@YAXAEBV?$FunctionCallbackInfo@VValue@v8@@@Nan@@@Z 000000018002c27c     binding.obj
 0004:00000288       $pdata$4$?ReinterpretBuffer@?A0x8d67e32c@@YAXAEBV?$FunctionCallbackInfo@VValue@v8@@@Nan@@@Z 000000018002c288     binding.obj
 0004:00000294       $pdata$6$?ReinterpretBuffer@?A0x8d67e32c@@YAXAEBV?$FunctionCallbackInfo@VValue@v8@@@Nan@@@Z 000000018002c294     binding.obj
 0004:000002a0       $pdata$?ReinterpretBufferUntilZeros@?A0x8d67e32c@@YAXAEBV?$FunctionCallbackInfo@VValue@v8@@@Nan@@@Z 000000018002c2a0     binding.obj
 0004:000002ac       $pdata$0$?ReinterpretBufferUntilZeros@?A0x8d67e32c@@YAXAEBV?$FunctionCallbackInfo@VValue@v8@@@Nan@@@Z 000000018002c2ac     binding.obj
 0004:000002b8       $pdata$1$?ReinterpretBufferUntilZeros@?A0x8d67e32c@@YAXAEBV?$FunctionCallbackInfo@VValue@v8@@@Nan@@@Z 000000018002c2b8     binding.obj
 0004:000002c4       $pdata$2$?ReinterpretBufferUntilZeros@?A0x8d67e32c@@YAXAEBV?$FunctionCallbackInfo@VValue@v8@@@Nan@@@Z 000000018002c2c4     binding.obj
 0004:000002d0       $pdata$4$?ReinterpretBufferUntilZeros@?A0x8d67e32c@@YAXAEBV?$FunctionCallbackInfo@VValue@v8@@@Nan@@@Z 000000018002c2d0     binding.obj
 0004:000002dc       $pdata$?init@@YAXV?$Local@VObject@v8@@@v8@@@Z 000000018002c2dc     binding.obj
 0004:000002e8       $pdata$??$SetMethod@VObject@v8@@VLocal@2@@Nan@@YAXV?$Local@VObject@v8@@@v8@@PEBDP6AXAEBV?$FunctionCallbackInfo@VValue@v8@@@0@@Z@Z 000000018002c2e8     binding.obj
 0004:000002f4       $pdata$3$??$SetMethod@VObject@v8@@VLocal@2@@Nan@@YAXV?$Local@VObject@v8@@@v8@@PEBDP6AXAEBV?$FunctionCallbackInfo@VValue@v8@@@0@@Z@Z 000000018002c2f4     binding.obj
 0004:00000300       $pdata$4$??$SetMethod@VObject@v8@@VLocal@2@@Nan@@YAXV?$Local@VObject@v8@@@v8@@PEBDP6AXAEBV?$FunctionCallbackInfo@VValue@v8@@@0@@Z@Z 000000018002c300     binding.obj
 0004:0000030c       $pdata$5$??$SetMethod@VObject@v8@@VLocal@2@@Nan@@YAXV?$Local@VObject@v8@@@v8@@PEBDP6AXAEBV?$FunctionCallbackInfo@VValue@v8@@@0@@Z@Z 000000018002c30c     binding.obj
 0004:00000318       $pdata$6$??$SetMethod@VObject@v8@@VLocal@2@@Nan@@YAXV?$Local@VObject@v8@@@v8@@PEBDP6AXAEBV?$FunctionCallbackInfo@VValue@v8@@@0@@Z@Z 000000018002c318     binding.obj
 0004:00000324       $pdata$??$invokeparameter@$00@?$WeakCallbackInfo@X@Nan@@CAXAEBV?$WeakCallbackInfo@V?$WeakCallbackInfo@X@Nan@@@v8@@@Z 000000018002c324     binding.obj
 0004:00000330       $pdata$??$SetMethodAux@V?$Local@VObject@v8@@@v8@@@imp@Nan@@YAXV?$Local@VObject@v8@@@v8@@V?$Local@VString@v8@@@3@V?$Local@VFunctionTemplate@v8@@@3@ZZ 000000018002c330     binding.obj
 0004:0000033c       $pdata$??$invokeparameter@$0A@@?$WeakCallbackInfo@X@Nan@@CAXAEBV?$WeakCallbackInfo@V?$WeakCallbackInfo@X@Nan@@@v8@@@Z 000000018002c33c     binding.obj
 0004:00000348       $pdata$?load_exe_hook@@YAP6A_JXZIPEAUDelayLoadInfo@@@Z 000000018002c348     win_delay_load_hook.obj
 0004:0000036c       $pdata$??2@YAPEAX_K@Z      000000018002c36c     LIBCMT:new_scalar.obj
 0004:00000378       $pdata$?dllmain_crt_dispatch@@YAHQEAUHINSTANCE__@@KQEAX@Z 000000018002c378     LIBCMT:dll_dllmain.obj
 0004:00000384       $pdata$?dllmain_crt_process_attach@@YAHQEAUHINSTANCE__@@QEAX@Z 000000018002c384     LIBCMT:dll_dllmain.obj
 0004:00000390       $pdata$?dllmain_crt_process_detach@@YAH_N@Z 000000018002c390     LIBCMT:dll_dllmain.obj
 0004:0000039c       $pdata$?dllmain_dispatch@@YAHQEAUHINSTANCE__@@KQEAX@Z 000000018002c39c     LIBCMT:dll_dllmain.obj
 0004:000003a8       $pdata$_DllMainCRTStartup  000000018002c3a8     LIBCMT:dll_dllmain.obj
 0004:000003b4       $pdata$__raise_securityfailure 000000018002c3b4     LIBCMT:gs_report.obj
 0004:000003c0       $pdata$__report_gsfailure  000000018002c3c0     LIBCMT:gs_report.obj
 0004:000003cc       $pdata$__report_rangecheckfailure 000000018002c3cc     LIBCMT:gs_report.obj
 0004:000003d8       $pdata$__report_securityfailure 000000018002c3d8     LIBCMT:gs_report.obj
 0004:000003e4       $pdata$capture_current_context 000000018002c3e4     LIBCMT:gs_report.obj
 0004:000003f0       $pdata$capture_previous_context 000000018002c3f0     LIBCMT:gs_report.obj
 0004:000003fc       $pdata$??0bad_alloc@std@@QEAA@AEBV01@@Z 000000018002c3fc     LIBCMT:throw_bad_alloc.obj
 0004:00000408       $pdata$??0bad_array_new_length@std@@QEAA@AEBV01@@Z 000000018002c408     LIBCMT:throw_bad_alloc.obj
 0004:00000414       $pdata$??0exception@std@@QEAA@AEBV01@@Z 000000018002c414     LIBCMT:throw_bad_alloc.obj
 0004:00000420       $pdata$??_Gexception@std@@UEAAPEAXI@Z 000000018002c420     LIBCMT:throw_bad_alloc.obj
 0004:00000420       $pdata$??_Gbad_array_new_length@std@@UEAAPEAXI@Z 000000018002c420     LIBCMT:throw_bad_alloc.obj
 0004:00000420       $pdata$??_Gbad_alloc@std@@UEAAPEAXI@Z 000000018002c420     LIBCMT:throw_bad_alloc.obj
 0004:00000420       $pdata$??_Gbad_exception@std@@UEAAPEAXI@Z 000000018002c420     libvcruntime:frame.obj
 0004:0000042c       $pdata$?__scrt_throw_std_bad_alloc@@YAXXZ 000000018002c42c     LIBCMT:throw_bad_alloc.obj
 0004:00000438       $pdata$?__scrt_throw_std_bad_array_new_length@@YAXXZ 000000018002c438     LIBCMT:throw_bad_alloc.obj
 0004:00000444       $pdata$__security_init_cookie 000000018002c444     LIBCMT:gs_support.obj
 0004:00000450       $pdata$__scrt_initialize_default_local_stdio_options 000000018002c450     LIBCMT:default_local_stdio_options.obj
 0004:0000045c       $pdata$__scrt_acquire_startup_lock 000000018002c45c     LIBCMT:utility.obj
 0004:00000468       $pdata$__scrt_dllmain_after_initialize_c 000000018002c468     LIBCMT:utility.obj
 0004:00000474       $pdata$__scrt_dllmain_before_initialize_c 000000018002c474     LIBCMT:utility.obj
 0004:00000480       $pdata$__scrt_dllmain_crt_thread_attach 000000018002c480     LIBCMT:utility.obj
 0004:0000048c       $pdata$__scrt_dllmain_crt_thread_detach 000000018002c48c     LIBCMT:utility.obj
 0004:00000498       $pdata$__scrt_dllmain_exception_filter 000000018002c498     LIBCMT:utility.obj
 0004:000004a4       $pdata$__scrt_dllmain_uninitialize_c 000000018002c4a4     LIBCMT:utility.obj
 0004:000004b0       $pdata$__scrt_dllmain_uninitialize_critical 000000018002c4b0     LIBCMT:utility.obj
 0004:000004bc       $pdata$__scrt_initialize_crt 000000018002c4bc     LIBCMT:utility.obj
 0004:000004c8       $pdata$__scrt_initialize_onexit_tables 000000018002c4c8     LIBCMT:utility.obj
 0004:000004d4       $pdata$__scrt_is_nonwritable_in_current_image 000000018002c4d4     LIBCMT:utility.obj
 0004:000004e0       $pdata$__scrt_release_startup_lock 000000018002c4e0     LIBCMT:utility.obj
 0004:000004ec       $pdata$__scrt_uninitialize_crt 000000018002c4ec     LIBCMT:utility.obj
 0004:000004f8       $pdata$__scrt_fastfail     000000018002c4f8     LIBCMT:utility_desktop.obj
 0004:00000504       $pdata$_RTC_Initialize     000000018002c504     LIBCMT:_initsect_.obj
 0004:00000510       $pdata$_RTC_Terminate      000000018002c510     LIBCMT:_initsect_.obj
 0004:0000051c       $pdata$??_Gtype_info@@UEAAPEAXI@Z 000000018002c51c     LIBCMT:std_type_info_static.obj
 0004:00000528       $pdata$__isa_available_init 000000018002c528     LIBCMT:_cpu_disp_.obj
 0004:00000534       $pdata$__C_specific_handler 000000018002c534     libvcruntime:_riscchandler_.obj
 0004:00000540       $pdata$__std_exception_copy 000000018002c540     libvcruntime:std_exception.obj
 0004:0000054c       $pdata$__std_exception_destroy 000000018002c54c     libvcruntime:std_exception.obj
 0004:00000558       $pdata$_CxxThrowException  000000018002c558     libvcruntime:throw.obj
 0004:00000564       $pdata$__std_type_info_destroy_list 000000018002c564     libvcruntime:std_type_info.obj
 0004:00000570       $pdata$__vcrt_initialize   000000018002c570     libvcruntime:initialization.obj
 0004:0000057c       $pdata$__vcrt_thread_attach 000000018002c57c     libvcruntime:initialization.obj
 0004:00000588       $pdata$__vcrt_thread_detach 000000018002c588     libvcruntime:initialization.obj
 0004:00000594       $pdata$__vcrt_uninitialize 000000018002c594     libvcruntime:initialization.obj
 0004:000005a0       $pdata$__vcrt_uninitialize_critical 000000018002c5a0     libvcruntime:initialization.obj
 0004:000005e8       $pdata$__DestructExceptionObject 000000018002c5e8     libvcruntime:ehhelpers.obj
 0004:000005f4       $pdata$_IsExceptionObjectToBeDestroyed 000000018002c5f4     libvcruntime:ehhelpers.obj
 0004:00000600       $pdata$__FrameUnwindFilter 000000018002c600     libvcruntime:ehhelpers.obj
 0004:0000060c       $pdata$__vcrt_freefls      000000018002c60c     libvcruntime:per_thread_data.obj
 0004:00000618       $pdata$__vcrt_freeptd      000000018002c618     libvcruntime:per_thread_data.obj
 0004:00000624       $pdata$__vcrt_getptd       000000018002c624     libvcruntime:per_thread_data.obj
 0004:00000630       $pdata$__vcrt_getptd_noexit 000000018002c630     libvcruntime:per_thread_data.obj
 0004:0000063c       $pdata$__vcrt_initialize_ptd 000000018002c63c     libvcruntime:per_thread_data.obj
 0004:00000648       $pdata$__vcrt_uninitialize_ptd 000000018002c648     libvcruntime:per_thread_data.obj
 0004:00000654       $pdata$__vcrt_initialize_locks 000000018002c654     libvcruntime:locks.obj
 0004:00000660       $pdata$__vcrt_uninitialize_locks 000000018002c660     libvcruntime:locks.obj
 0004:0000066c       $pdata$?try_get_function@@YAPEAXW4function_id@?A0xcc2f1bd3@@QEBDQEBW4module_id@2@2@Z 000000018002c66c     libvcruntime:winapi_downlevel.obj
 0004:00000678       $pdata$__vcrt_FlsAlloc     000000018002c678     libvcruntime:winapi_downlevel.obj
 0004:00000684       $pdata$__vcrt_FlsFree      000000018002c684     libvcruntime:winapi_downlevel.obj
 0004:00000690       $pdata$__vcrt_FlsGetValue  000000018002c690     libvcruntime:winapi_downlevel.obj
 0004:0000069c       $pdata$__vcrt_FlsSetValue  000000018002c69c     libvcruntime:winapi_downlevel.obj
 0004:000006a8       $pdata$__vcrt_InitializeCriticalSectionEx 000000018002c6a8     libvcruntime:winapi_downlevel.obj
 0004:000006b4       $pdata$__vcrt_initialize_winapi_thunks 000000018002c6b4     libvcruntime:winapi_downlevel.obj
 0004:000006c0       $pdata$__vcrt_uninitialize_winapi_thunks 000000018002c6c0     libvcruntime:winapi_downlevel.obj
 0004:000006cc       $pdata$??$_CallSETranslator@V__FrameHandler3@@@@YAHPEAUEHExceptionRecord@@PEA_KPEAU_CONTEXT@@PEAU_xDISPATCHER_CONTEXT@@PEBU_s_FuncInfo@@K1@Z 000000018002c6cc     libvcruntime:risctrnsctrl.obj
 0004:000006d8       $pdata$?CatchTryBlock@__FrameHandler3@@SAPEBU_s_TryBlockMapEntry@@PEBU_s_FuncInfo@@H@Z 000000018002c6d8     libvcruntime:risctrnsctrl.obj
 0004:000006e4       $pdata$?ExecutionInCatch@__FrameHandler3@@SA_NPEAU_xDISPATCHER_CONTEXT@@PEBU_s_FuncInfo@@@Z 000000018002c6e4     libvcruntime:risctrnsctrl.obj
 0004:000006f0       $pdata$?FrameUnwindToEmptyState@__FrameHandler3@@SAXPEA_KPEAU_xDISPATCHER_CONTEXT@@PEBU_s_FuncInfo@@@Z 000000018002c6f0     libvcruntime:risctrnsctrl.obj
 0004:000006fc       $pdata$?GetEstablisherFrame@__FrameHandler3@@SAPEA_KPEA_KPEAU_xDISPATCHER_CONTEXT@@PEBU_s_FuncInfo@@0@Z 000000018002c6fc     libvcruntime:risctrnsctrl.obj
 0004:00000708       $pdata$?GetRangeOfTrysToCheck@__FrameHandler3@@SA?AU?$pair@Viterator@TryBlockMap@__FrameHandler3@@V123@@std@@AEAVTryBlockMap@1@HH@Z 000000018002c708     libvcruntime:risctrnsctrl.obj
 0004:00000714       $pdata$?UnwindNestedFrames@__FrameHandler3@@SAXPEA_KPEAUEHExceptionRecord@@PEAU_CONTEXT@@0PEAXPEBU_s_FuncInfo@@HHPEBU_s_HandlerType@@PEAU_xDISPATCHER_CONTEXT@@E@Z 000000018002c714     libvcruntime:risctrnsctrl.obj
 0004:00000720       $pdata$_CreateFrameInfo    000000018002c720     libvcruntime:risctrnsctrl.obj
 0004:0000072c       $pdata$_FindAndUnlinkFrame 000000018002c72c     libvcruntime:risctrnsctrl.obj
 0004:00000738       $pdata$_GetImageBase       000000018002c738     libvcruntime:risctrnsctrl.obj
 0004:00000744       $pdata$_GetThrowImageBase  000000018002c744     libvcruntime:risctrnsctrl.obj
 0004:00000750       $pdata$_SetImageBase       000000018002c750     libvcruntime:risctrnsctrl.obj
 0004:0000075c       $pdata$_SetThrowImageBase  000000018002c75c     libvcruntime:risctrnsctrl.obj
 0004:00000768       $pdata$__CxxFrameHandler3  000000018002c768     libvcruntime:risctrnsctrl.obj
 0004:0000078c       $pdata$?GetCurrentState@__FrameHandler3@@SAHPEA_KPEAU_xDISPATCHER_CONTEXT@@PEBU_s_FuncInfo@@@Z 000000018002c78c     libvcruntime:ehstate.obj
 0004:00000798       $pdata$?GetUnwindTryBlock@__FrameHandler3@@SAHPEA_KPEAU_xDISPATCHER_CONTEXT@@PEBU_s_FuncInfo@@@Z 000000018002c798     libvcruntime:ehstate.obj
 0004:000007a4       $pdata$?SetUnwindTryBlock@__FrameHandler3@@SAXPEA_KPEAU_xDISPATCHER_CONTEXT@@PEBU_s_FuncInfo@@H@Z 000000018002c7a4     libvcruntime:ehstate.obj
 0004:000007b0       $pdata$?StateFromIp@__FrameHandler3@@SAHPEBU_s_FuncInfo@@PEAU_xDISPATCHER_CONTEXT@@_K@Z 000000018002c7b0     libvcruntime:ehstate.obj
 0004:000007bc       $pdata$??$BuildCatchObjectHelperInternal@$$CBU_s_HandlerType@@@@YAHPEAUEHExceptionRecord@@PEAXPEBU_s_HandlerType@@PEBU_s_CatchableType@@@Z 000000018002c7bc     libvcruntime:frame.obj
 0004:000007c8       $pdata$??$BuildCatchObjectInternal@$$CBU_s_HandlerType@@@@YAXPEAUEHExceptionRecord@@PEAXPEBU_s_HandlerType@@PEBU_s_CatchableType@@@Z 000000018002c7c8     libvcruntime:frame.obj
 0004:000007d4       $pdata$??$CatchIt@V__FrameHandler3@@@@YAXPEAUEHExceptionRecord@@PEA_KPEAU_CONTEXT@@PEAU_xDISPATCHER_CONTEXT@@PEBU_s_FuncInfo@@PEBU_s_HandlerType@@PEBU_s_CatchableType@@PEBU_s_TryBlockMapEntry@@H1EE@Z 000000018002c7d4     libvcruntime:frame.obj
 0004:000007e0       $pdata$??$FindHandler@V__FrameHandler3@@@@YAXPEAUEHExceptionRecord@@PEA_KPEAU_CONTEXT@@PEAU_xDISPATCHER_CONTEXT@@PEBU_s_FuncInfo@@EH1@Z 000000018002c7e0     libvcruntime:frame.obj
 0004:000007ec       $pdata$??$FindHandlerForForeignException@V__FrameHandler3@@@@YAXPEAUEHExceptionRecord@@PEA_KPEAU_CONTEXT@@PEAU_xDISPATCHER_CONTEXT@@PEBU_s_FuncInfo@@HH1@Z 000000018002c7ec     libvcruntime:frame.obj
 0004:000007f8       $pdata$??$TypeMatchHelper@$$CBU_s_HandlerType@@@@YAHPEBU_s_HandlerType@@PEBU_s_CatchableType@@PEBU_s_ThrowInfo@@@Z 000000018002c7f8     libvcruntime:frame.obj
 0004:00000804       $pdata$??$__InternalCxxFrameHandler@V__FrameHandler3@@@@YA?AW4_EXCEPTION_DISPOSITION@@PEAUEHExceptionRecord@@PEA_KPEAU_CONTEXT@@PEAU_xDISPATCHER_CONTEXT@@PEBU_s_FuncInfo@@H1E@Z 000000018002c804     libvcruntime:frame.obj
 0004:00000810       $pdata$??0bad_exception@std@@QEAA@AEBV01@@Z 000000018002c810     libvcruntime:frame.obj
 0004:0000081c       $pdata$?CxxCallCatchBlock@__FrameHandler3@@SAPEAXPEAU_EXCEPTION_RECORD@@@Z 000000018002c81c     libvcruntime:frame.obj
 0004:00000828       $pdata$?ExFilterRethrow@@YAHPEAU_EXCEPTION_POINTERS@@PEAUEHExceptionRecord@@PEAH@Z 000000018002c828     libvcruntime:frame.obj
 0004:00000834       $pdata$?FrameUnwindToState@__FrameHandler3@@SAXPEA_KPEAU_xDISPATCHER_CONTEXT@@PEBU_s_FuncInfo@@H@Z 000000018002c834     libvcruntime:frame.obj
 0004:00000840       $pdata$?GetHandlerSearchState@__FrameHandler3@@SAHPEA_KPEAU_xDISPATCHER_CONTEXT@@PEBU_s_FuncInfo@@@Z 000000018002c840     libvcruntime:frame.obj
 0004:0000084c       $pdata$?IsInExceptionSpec@@YAEPEAUEHExceptionRecord@@PEBU_s_ESTypeList@@@Z 000000018002c84c     libvcruntime:frame.obj
 0004:00000858       $pdata$?Is_bad_exception_allowed@@YAEPEBU_s_ESTypeList@@@Z 000000018002c858     libvcruntime:frame.obj
 0004:0000087c       $pdata$??$parse_integer@KV?$c_string_character_source@D@__crt_strtox@@@__crt_strtox@@YAKQEAU__crt_locale_pointers@@V?$c_string_character_source@D@0@H_N@Z 000000018002c87c     libucrt:strtox.obj
 0004:00000888       $pdata$??$parse_integer@KV?$c_string_character_source@_W@__crt_strtox@@@__crt_strtox@@YAKQEAU__crt_locale_pointers@@V?$c_string_character_source@_W@0@H_N@Z 000000018002c888     libucrt:strtox.obj
 0004:00000894       $pdata$??$parse_integer@_KV?$c_string_character_source@D@__crt_strtox@@@__crt_strtox@@YA_KQEAU__crt_locale_pointers@@V?$c_string_character_source@D@0@H_N@Z 000000018002c894     libucrt:strtox.obj
 0004:000008a0       $pdata$??0_LocaleUpdate@@QEAA@QEAU__crt_locale_pointers@@@Z 000000018002c8a0     libucrt:strtox.obj
 0004:000008ac       $pdata$_strtoi64           000000018002c8ac     libucrt:strtox.obj
 0004:000008b8       $pdata$_strtoui64          000000018002c8b8     libucrt:strtox.obj
 0004:000008c4       $pdata$strtol              000000018002c8c4     libucrt:strtox.obj
 0004:000008d0       $pdata$wcstol              000000018002c8d0     libucrt:strtox.obj
 0004:000008dc       $pdata$??$?RV<lambda_0d412022a4b28cc8a401ea49574e8ae6>@@AEAV<lambda_a775ed57af18ba8e4d5dc780aa9068fe>@@V<lambda_975a71a6baa488a08f4e15f6b0339b9e>@@@?$__crt_seh_guarded_call@H@@QEAAH$$QEAV<lambda_0d412022a4b28cc8a401ea49574e8ae6>@@AEAV<lambda_a775ed57af18ba8e4d5dc780aa9068fe>@@$$QEAV<lambda_975a71a6baa488a08f4e15f6b0339b9e>@@@Z 000000018002c8dc     libucrt:output.obj
 0004:000008e8       $pdata$??$common_vsprintf@Vformat_validation_base@__crt_stdio_output@@D@@YAH_KQEAD0QEBDQEAU__crt_locale_pointers@@1@Z 000000018002c8e8     libucrt:output.obj
 0004:000008f4       $pdata$??$common_vsprintf@Vstandard_base@__crt_stdio_output@@_W@@YAH_KQEA_W0QEB_WQEAU__crt_locale_pointers@@QEAD@Z 000000018002c8f4     libucrt:output.obj
 0004:00000900       $pdata$??$ensure_buffer_is_big_enough@D@formatting_buffer@__crt_stdio_output@@QEAA_N_K@Z 000000018002c900     libucrt:output.obj
 0004:0000090c       $pdata$??$ensure_buffer_is_big_enough@_W@formatting_buffer@__crt_stdio_output@@QEAA_N_K@Z 000000018002c90c     libucrt:output.obj
 0004:00000918       $pdata$??$type_case_integer_parse_into_buffer@I@?$output_processor@DV?$string_output_adapter@D@__crt_stdio_output@@V?$format_validation_base@DV?$string_output_adapter@D@__crt_stdio_output@@@2@@__crt_stdio_output@@AEAAXII_N@Z 000000018002c918     libucrt:output.obj
 0004:00000924       $pdata$??$type_case_integer_parse_into_buffer@I@?$output_processor@_WV?$string_output_adapter@_W@__crt_stdio_output@@V?$standard_base@_WV?$string_output_adapter@_W@__crt_stdio_output@@@2@@__crt_stdio_output@@AEAAXII_N@Z 000000018002c924     libucrt:output.obj
 0004:00000924       $pdata$??$type_case_integer_parse_into_buffer@I@?$output_processor@_WV?$stream_output_adapter@_W@__crt_stdio_output@@V?$standard_base@_WV?$stream_output_adapter@_W@__crt_stdio_output@@@2@@__crt_stdio_output@@AEAAXII_N@Z 000000018002c924     libucrt:output.obj
 0004:00000930       $pdata$??$type_case_integer_parse_into_buffer@_K@?$output_processor@DV?$string_output_adapter@D@__crt_stdio_output@@V?$format_validation_base@DV?$string_output_adapter@D@__crt_stdio_output@@@2@@__crt_stdio_output@@AEAAX_KI_N@Z 000000018002c930     libucrt:output.obj
 0004:0000093c       $pdata$??$type_case_integer_parse_into_buffer@_K@?$output_processor@_WV?$stream_output_adapter@_W@__crt_stdio_output@@V?$standard_base@_WV?$stream_output_adapter@_W@__crt_stdio_output@@@2@@__crt_stdio_output@@AEAAX_KI_N@Z 000000018002c93c     libucrt:output.obj
 0004:0000093c       $pdata$??$type_case_integer_parse_into_buffer@_K@?$output_processor@_WV?$string_output_adapter@_W@__crt_stdio_output@@V?$standard_base@_WV?$string_output_adapter@_W@__crt_stdio_output@@@2@@__crt_stdio_output@@AEAAX_KI_N@Z 000000018002c93c     libucrt:output.obj
 0004:00000948       $pdata$??$write_multiple_characters@V?$stream_output_adapter@_W@__crt_stdio_output@@D@__crt_stdio_output@@YAXAEBV?$stream_output_adapter@_W@0@DHQEAH@Z 000000018002c948     libucrt:output.obj
 0004:00000954       $pdata$??$write_multiple_characters@V?$string_output_adapter@D@__crt_stdio_output@@D@__crt_stdio_output@@YAXAEBV?$string_output_adapter@D@0@DHQEAH@Z 000000018002c954     libucrt:output.obj
 0004:00000960       $pdata$??$write_multiple_characters@V?$string_output_adapter@_W@__crt_stdio_output@@D@__crt_stdio_output@@YAXAEBV?$string_output_adapter@_W@0@DHQEAH@Z 000000018002c960     libucrt:output.obj
 0004:0000096c       $pdata$??R<lambda_a775ed57af18ba8e4d5dc780aa9068fe>@@QEBAHXZ 000000018002c96c     libucrt:output.obj
 0004:00000978       $pdata$?force_decimal_point@__crt_stdio_output@@YAXPEADQEAU__crt_locale_pointers@@@Z 000000018002c978     libucrt:output.obj
 0004:00000984       $pdata$?parse_int_from_format_string@?$output_processor@DV?$string_output_adapter@D@__crt_stdio_output@@V?$format_validation_base@DV?$string_output_adapter@D@__crt_stdio_output@@@2@@__crt_stdio_output@@AEAA_NQEAH@Z 000000018002c984     libucrt:output.obj
 0004:00000990       $pdata$?parse_int_from_format_string@?$output_processor@_WV?$string_output_adapter@_W@__crt_stdio_output@@V?$standard_base@_WV?$string_output_adapter@_W@__crt_stdio_output@@@2@@__crt_stdio_output@@AEAA_NQEAH@Z 000000018002c990     libucrt:output.obj
 0004:00000990       $pdata$?parse_int_from_format_string@?$output_processor@_WV?$stream_output_adapter@_W@__crt_stdio_output@@V?$standard_base@_WV?$stream_output_adapter@_W@__crt_stdio_output@@@2@@__crt_stdio_output@@AEAA_NQEAH@Z 000000018002c990     libucrt:output.obj
 0004:0000099c       $pdata$?process@?$output_processor@DV?$string_output_adapter@D@__crt_stdio_output@@V?$format_validation_base@DV?$string_output_adapter@D@__crt_stdio_output@@@2@@__crt_stdio_output@@QEAAHXZ 000000018002c99c     libucrt:output.obj
 0004:000009a8       $pdata$?process@?$output_processor@_WV?$stream_output_adapter@_W@__crt_stdio_output@@V?$standard_base@_WV?$stream_output_adapter@_W@__crt_stdio_output@@@2@@__crt_stdio_output@@QEAAHXZ 000000018002c9a8     libucrt:output.obj
 0004:000009b4       $pdata$?process@?$output_processor@_WV?$string_output_adapter@_W@__crt_stdio_output@@V?$standard_base@_WV?$string_output_adapter@_W@__crt_stdio_output@@@2@@__crt_stdio_output@@QEAAHXZ 000000018002c9b4     libucrt:output.obj
 0004:000009c0       $pdata$?state_case_normal@?$output_processor@DV?$string_output_adapter@D@__crt_stdio_output@@V?$format_validation_base@DV?$string_output_adapter@D@__crt_stdio_output@@@2@@__crt_stdio_output@@AEAA_NXZ 000000018002c9c0     libucrt:output.obj
 0004:000009cc       $pdata$?state_case_normal_tchar@?$output_processor@DV?$string_output_adapter@D@__crt_stdio_output@@V?$format_validation_base@DV?$string_output_adapter@D@__crt_stdio_output@@@2@@__crt_stdio_output@@AEAA_ND@Z 000000018002c9cc     libucrt:output.obj
 0004:000009d8       $pdata$?state_case_size@?$output_processor@DV?$string_output_adapter@D@__crt_stdio_output@@V?$format_validation_base@DV?$string_output_adapter@D@__crt_stdio_output@@@2@@__crt_stdio_output@@AEAA_NXZ 000000018002c9d8     libucrt:output.obj
 0004:000009e4       $pdata$?state_case_size@?$output_processor@_WV?$stream_output_adapter@_W@__crt_stdio_output@@V?$standard_base@_WV?$stream_output_adapter@_W@__crt_stdio_output@@@2@@__crt_stdio_output@@AEAA_NXZ 000000018002c9e4     libucrt:output.obj
 0004:000009f0       $pdata$?state_case_size@?$output_processor@_WV?$string_output_adapter@_W@__crt_stdio_output@@V?$standard_base@_WV?$string_output_adapter@_W@__crt_stdio_output@@@2@@__crt_stdio_output@@AEAA_NXZ 000000018002c9f0     libucrt:output.obj
 0004:000009fc       $pdata$?state_case_type@?$output_processor@DV?$string_output_adapter@D@__crt_stdio_output@@V?$format_validation_base@DV?$string_output_adapter@D@__crt_stdio_output@@@2@@__crt_stdio_output@@AEAA_NXZ 000000018002c9fc     libucrt:output.obj
 0004:00000a08       $pdata$?state_case_type@?$output_processor@_WV?$stream_output_adapter@_W@__crt_stdio_output@@V?$standard_base@_WV?$stream_output_adapter@_W@__crt_stdio_output@@@2@@__crt_stdio_output@@AEAA_NXZ 000000018002ca08     libucrt:output.obj
 0004:00000a14       $pdata$?state_case_type@?$output_processor@_WV?$string_output_adapter@_W@__crt_stdio_output@@V?$standard_base@_WV?$string_output_adapter@_W@__crt_stdio_output@@@2@@__crt_stdio_output@@AEAA_NXZ 000000018002ca14     libucrt:output.obj
 0004:00000a20       $pdata$?type_case_Z@?$output_processor@_WV?$string_output_adapter@_W@__crt_stdio_output@@V?$standard_base@_WV?$string_output_adapter@_W@__crt_stdio_output@@@2@@__crt_stdio_output@@AEAA_NXZ 000000018002ca20     libucrt:output.obj
 0004:00000a20       $pdata$?type_case_Z@?$output_processor@_WV?$stream_output_adapter@_W@__crt_stdio_output@@V?$standard_base@_WV?$stream_output_adapter@_W@__crt_stdio_output@@@2@@__crt_stdio_output@@AEAA_NXZ 000000018002ca20     libucrt:output.obj
 0004:00000a2c       $pdata$?type_case_a@?$output_processor@DV?$string_output_adapter@D@__crt_stdio_output@@V?$format_validation_base@DV?$string_output_adapter@D@__crt_stdio_output@@@2@@__crt_stdio_output@@AEAA_NXZ 000000018002ca2c     libucrt:output.obj
 0004:00000a38       $pdata$?type_case_a@?$output_processor@_WV?$stream_output_adapter@_W@__crt_stdio_output@@V?$standard_base@_WV?$stream_output_adapter@_W@__crt_stdio_output@@@2@@__crt_stdio_output@@AEAA_NXZ 000000018002ca38     libucrt:output.obj
 0004:00000a38       $pdata$?type_case_a@?$output_processor@_WV?$string_output_adapter@_W@__crt_stdio_output@@V?$standard_base@_WV?$string_output_adapter@_W@__crt_stdio_output@@@2@@__crt_stdio_output@@AEAA_NXZ 000000018002ca38     libucrt:output.obj
 0004:00000a44       $pdata$?type_case_c_tchar@?$output_processor@DV?$string_output_adapter@D@__crt_stdio_output@@V?$format_validation_base@DV?$string_output_adapter@D@__crt_stdio_output@@@2@@__crt_stdio_output@@AEAA_ND@Z 000000018002ca44     libucrt:output.obj
 0004:00000a50       $pdata$?type_case_c_tchar@?$output_processor@_WV?$stream_output_adapter@_W@__crt_stdio_output@@V?$standard_base@_WV?$stream_output_adapter@_W@__crt_stdio_output@@@2@@__crt_stdio_output@@AEAA_N_W@Z 000000018002ca50     libucrt:output.obj
 0004:00000a50       $pdata$?type_case_c_tchar@?$output_processor@_WV?$string_output_adapter@_W@__crt_stdio_output@@V?$standard_base@_WV?$string_output_adapter@_W@__crt_stdio_output@@@2@@__crt_stdio_output@@AEAA_N_W@Z 000000018002ca50     libucrt:output.obj
 0004:00000a5c       $pdata$?type_case_integer@?$output_processor@DV?$string_output_adapter@D@__crt_stdio_output@@V?$format_validation_base@DV?$string_output_adapter@D@__crt_stdio_output@@@2@@__crt_stdio_output@@AEAA_NI_N@Z 000000018002ca5c     libucrt:output.obj
 0004:00000a68       $pdata$?type_case_integer@?$output_processor@_WV?$stream_output_adapter@_W@__crt_stdio_output@@V?$standard_base@_WV?$stream_output_adapter@_W@__crt_stdio_output@@@2@@__crt_stdio_output@@AEAA_NI_N@Z 000000018002ca68     libucrt:output.obj
 0004:00000a68       $pdata$?type_case_integer@?$output_processor@_WV?$string_output_adapter@_W@__crt_stdio_output@@V?$standard_base@_WV?$string_output_adapter@_W@__crt_stdio_output@@@2@@__crt_stdio_output@@AEAA_NI_N@Z 000000018002ca68     libucrt:output.obj
 0004:00000a74       $pdata$?type_case_n@?$output_processor@DV?$string_output_adapter@D@__crt_stdio_output@@V?$format_validation_base@DV?$string_output_adapter@D@__crt_stdio_output@@@2@@__crt_stdio_output@@AEAA_NXZ 000000018002ca74     libucrt:output.obj
 0004:00000a74       $pdata$?type_case_n@?$output_processor@_WV?$stream_output_adapter@_W@__crt_stdio_output@@V?$standard_base@_WV?$stream_output_adapter@_W@__crt_stdio_output@@@2@@__crt_stdio_output@@AEAA_NXZ 000000018002ca74     libucrt:output.obj
 0004:00000a74       $pdata$?type_case_n@?$output_processor@_WV?$string_output_adapter@_W@__crt_stdio_output@@V?$standard_base@_WV?$string_output_adapter@_W@__crt_stdio_output@@@2@@__crt_stdio_output@@AEAA_NXZ 000000018002ca74     libucrt:output.obj
 0004:00000a80       $pdata$?type_case_s@?$output_processor@DV?$string_output_adapter@D@__crt_stdio_output@@V?$format_validation_base@DV?$string_output_adapter@D@__crt_stdio_output@@@2@@__crt_stdio_output@@AEAA_NXZ 000000018002ca80     libucrt:output.obj
 0004:00000a8c       $pdata$?type_case_s@?$output_processor@_WV?$string_output_adapter@_W@__crt_stdio_output@@V?$standard_base@_WV?$string_output_adapter@_W@__crt_stdio_output@@@2@@__crt_stdio_output@@AEAA_NXZ 000000018002ca8c     libucrt:output.obj
 0004:00000a8c       $pdata$?type_case_s@?$output_processor@_WV?$stream_output_adapter@_W@__crt_stdio_output@@V?$standard_base@_WV?$stream_output_adapter@_W@__crt_stdio_output@@@2@@__crt_stdio_output@@AEAA_NXZ 000000018002ca8c     libucrt:output.obj
 0004:00000a98       $pdata$?write_stored_string_tchar@?$output_processor@DV?$string_output_adapter@D@__crt_stdio_output@@V?$format_validation_base@DV?$string_output_adapter@D@__crt_stdio_output@@@2@@__crt_stdio_output@@AEAA_ND@Z 000000018002ca98     libucrt:output.obj
 0004:00000aa4       $pdata$?write_stored_string_tchar@?$output_processor@_WV?$stream_output_adapter@_W@__crt_stdio_output@@V?$standard_base@_WV?$stream_output_adapter@_W@__crt_stdio_output@@@2@@__crt_stdio_output@@AEAA_N_W@Z 000000018002caa4     libucrt:output.obj
 0004:00000ab0       $pdata$?write_stored_string_tchar@?$output_processor@_WV?$string_output_adapter@_W@__crt_stdio_output@@V?$standard_base@_WV?$string_output_adapter@_W@__crt_stdio_output@@@2@@__crt_stdio_output@@AEAA_N_W@Z 000000018002cab0     libucrt:output.obj
 0004:00000abc       $pdata$?write_string@?$string_output_adapter@D@__crt_stdio_output@@QEBAXQEBDHQEAHAEAV__crt_deferred_errno_cache@@@Z 000000018002cabc     libucrt:output.obj
 0004:00000ac8       $pdata$?write_string@?$string_output_adapter@_W@__crt_stdio_output@@QEBAXQEB_WHQEAHAEAV__crt_deferred_errno_cache@@@Z 000000018002cac8     libucrt:output.obj
 0004:00000ad4       $pdata$?write_string_impl@?$output_adapter_common@_WV?$stream_output_adapter@_W@__crt_stdio_output@@@__crt_stdio_output@@IEBAXQEB_WHQEAHAEAV__crt_deferred_errno_cache@@@Z 000000018002cad4     libucrt:output.obj
 0004:00000ae0       $pdata$__stdio_common_vfwprintf 000000018002cae0     libucrt:output.obj
 0004:00000aec       $pdata$__stdio_common_vsnprintf_s 000000018002caec     libucrt:output.obj
 0004:00000af8       $pdata$__acrt_errno_map_os_error 000000018002caf8     libucrt:errno.obj
 0004:00000b04       $pdata$__doserrno          000000018002cb04     libucrt:errno.obj
 0004:00000b10       $pdata$_errno              000000018002cb10     libucrt:errno.obj
 0004:00000b1c       $pdata$??$common_assert_to_message_box@_W@@YAXQEB_W0IQEAX@Z 000000018002cb1c     libucrt:assert.obj
 0004:00000b28       $pdata$??$common_assert_to_message_box_build_string@_W@@YAXQEA_W_KQEB_W2IQEAX@Z 000000018002cb28     libucrt:assert.obj
 0004:00000b34       $pdata$??$common_assert_to_stderr@_W@@YAXQEB_W0I@Z 000000018002cb34     libucrt:assert.obj
 0004:00000b40       $pdata$_wassert            000000018002cb40     libucrt:assert.obj
 0004:00000b4c       $pdata$fwprintf            000000018002cb4c     libucrt:assert.obj
 0004:00000b58       $pdata$swprintf            000000018002cb58     libucrt:assert.obj
 0004:00000b64       $pdata$strerror            000000018002cb64     libucrt:strerror.obj
 0004:00000b70       $pdata$_stricmp            000000018002cb70     libucrt:stricmp.obj
 0004:00000b7c       $pdata$_stricmp_l          000000018002cb7c     libucrt:stricmp.obj
 0004:00000b88       $pdata$_callnewh           000000018002cb88     libucrt:new_handler.obj
 0004:00000b94       $pdata$_query_new_handler  000000018002cb94     libucrt:new_handler.obj
 0004:00000ba0       $pdata$_initterm           000000018002cba0     libucrt:initterm.obj
 0004:00000bac       $pdata$_initterm_e         000000018002cbac     libucrt:initterm.obj
 0004:00000bb8       $pdata$_seh_filter_exe     000000018002cbb8     libucrt:exception_filter.obj
 0004:00000bc4       $pdata$??$?RV<lambda_d80eeec6fff315bfe5c115232f3240e3>@@AEAV<lambda_6e4b09c48022b2350581041d5f6b0c4c>@@V<lambda_2358e3775559c9db80273638284d5e45>@@@?$__crt_seh_guarded_call@X@@QEAAX$$QEAV<lambda_d80eeec6fff315bfe5c115232f3240e3>@@AEAV<lambda_6e4b09c48022b2350581041d5f6b0c4c>@@$$QEAV<lambda_2358e3775559c9db80273638284d5e45>@@@Z 000000018002cbc4     libucrt:exit.obj
 0004:00000bd0       $pdata$??R<lambda_6e4b09c48022b2350581041d5f6b0c4c>@@QEBA@XZ 000000018002cbd0     libucrt:exit.obj
 0004:00000bdc       $pdata$?common_exit@@YAXHW4_crt_exit_cleanup_mode@@W4_crt_exit_return_mode@@@Z 000000018002cbdc     libucrt:exit.obj
 0004:00000be8       $pdata$?exit_or_terminate_process@@YAXI@Z 000000018002cbe8     libucrt:exit.obj
 0004:00000bf4       $pdata$?try_cor_exit_process@@YAXI@Z 000000018002cbf4     libucrt:exit.obj
 0004:00000c00       $pdata$??$parse_command_line@D@@YAXPEADPEAPEAD0PEA_K2@Z 000000018002cc00     libucrt:argv_parsing.obj
 0004:00000c0c       $pdata$__acrt_allocate_buffer_for_argv 000000018002cc0c     libucrt:argv_parsing.obj
 0004:00000c18       $pdata$_configure_narrow_argv 000000018002cc18     libucrt:argv_parsing.obj
 0004:00000c24       $pdata$??$common_initialize_environment_nolock@D@@YAHXZ 000000018002cc24     libucrt:environment_initialization.obj
 0004:00000c30       $pdata$??$create_environment@D@@YAQEAPEADQEAD@Z 000000018002cc30     libucrt:environment_initialization.obj
 0004:00000c3c       $pdata$??$free_environment@D@@YAXQEAPEAD@Z 000000018002cc3c     libucrt:environment_initialization.obj
 0004:00000c3c       $pdata$??$free_environment@_W@@YAXQEAPEA_W@Z 000000018002cc3c     libucrt:environment_initialization.obj
 0004:00000c48       $pdata$??$uninitialize_environment_internal@D@@YAXAEAPEAPEAD@Z 000000018002cc48     libucrt:environment_initialization.obj
 0004:00000c54       $pdata$??$uninitialize_environment_internal@_W@@YAXAEAPEAPEA_W@Z 000000018002cc54     libucrt:environment_initialization.obj
 0004:00000c60       $pdata$__dcrt_uninitialize_environments_nolock 000000018002cc60     libucrt:environment_initialization.obj
 0004:00000c6c       $pdata$??$?RV<lambda_7777bce6b2f8c936911f934f8298dc43>@@AEAV<lambda_f03950bc5685219e0bcd2087efbe011e>@@V<lambda_3883c3dff614d5e0c5f61bb1ac94921c>@@@?$__crt_seh_guarded_call@H@@QEAAH$$QEAV<lambda_7777bce6b2f8c936911f934f8298dc43>@@AEAV<lambda_f03950bc5685219e0bcd2087efbe011e>@@$$QEAV<lambda_3883c3dff614d5e0c5f61bb1ac94921c>@@@Z 000000018002cc6c     libucrt:onexit.obj
 0004:00000c78       $pdata$??R<lambda_f03950bc5685219e0bcd2087efbe011e>@@QEBAHXZ 000000018002cc78     libucrt:onexit.obj
 0004:00000c84       $pdata$_execute_onexit_table 000000018002cc84     libucrt:onexit.obj
 0004:00000c90       $pdata$initialize_c        000000018002cc90     libucrt:initialization.obj
 0004:00000c9c       $pdata$uninitialize_environment 000000018002cc9c     libucrt:initialization.obj
 0004:00000ca8       $pdata$initialize_pointers 000000018002cca8     libucrt:initialization.obj
 0004:00000cb4       $pdata$uninitialize_allocated_memory 000000018002ccb4     libucrt:initialization.obj
 0004:00000cc0       $pdata$uninitialize_allocated_io_buffers 000000018002ccc0     libucrt:initialization.obj
 0004:00000ccc       $pdata$__acrt_thread_attach 000000018002cccc     libucrt:initialization.obj
 0004:00000cd8       $pdata$__acrt_thread_detach 000000018002ccd8     libucrt:initialization.obj
 0004:00000ce4       $pdata$__acrt_uninitialize 000000018002cce4     libucrt:initialization.obj
 0004:00000cf0       $pdata$__acrt_uninitialize_critical 000000018002ccf0     libucrt:initialization.obj
 0004:00000cfc       $pdata$terminate           000000018002ccfc     libucrt:terminate.obj
 0004:00000d08       $pdata$strcpy_s            000000018002cd08     libucrt:strcpy_s.obj
 0004:00000d20       $pdata$abort               000000018002cd20     libucrt:abort.obj
 0004:00000d2c       $pdata$__acrt_call_reportfault 000000018002cd2c     libucrt:invalid_parameter.obj
 0004:00000d38       $pdata$_invalid_parameter  000000018002cd38     libucrt:invalid_parameter.obj
 0004:00000d44       $pdata$_invalid_parameter_noinfo 000000018002cd44     libucrt:invalid_parameter.obj
 0004:00000d50       $pdata$_invoke_watson      000000018002cd50     libucrt:invalid_parameter.obj
 0004:00000d5c       $pdata$__pctype_func       000000018002cd5c     libucrt:ctype.obj
 0004:00000d68       $pdata$iswctype            000000018002cd68     libucrt:iswctype.obj
 0004:00000d74       $pdata$_isctype_l          000000018002cd74     libucrt:isctype.obj
 0004:00000d80       $pdata$??$?RV<lambda_0ae27a3a962d80f24befdcbee591983d>@@AEAV<lambda_8d0ee55de4b1038c4002e0adecdf1839>@@V<lambda_dc504788e8f1664fe9b84e20bfb512f2>@@@?$__crt_seh_guarded_call@X@@QEAAX$$QEAV<lambda_0ae27a3a962d80f24befdcbee591983d>@@AEAV<lambda_8d0ee55de4b1038c4002e0adecdf1839>@@$$QEAV<lambda_dc504788e8f1664fe9b84e20bfb512f2>@@@Z 000000018002cd80     libucrt:per_thread_data.obj
 0004:00000d8c       $pdata$??$?RV<lambda_2d41944a1d46af3157314b8a01080d33>@@AEAV<lambda_8f455de75cd7d7f24b4096f044d8b9e6>@@V<lambda_aa500f224e6afead328df44964fe2772>@@@?$__crt_seh_guarded_call@X@@QEAAX$$QEAV<lambda_2d41944a1d46af3157314b8a01080d33>@@AEAV<lambda_8f455de75cd7d7f24b4096f044d8b9e6>@@$$QEAV<lambda_aa500f224e6afead328df44964fe2772>@@@Z 000000018002cd8c     libucrt:per_thread_data.obj
 0004:00000d98       $pdata$??$?RV<lambda_aa87e3671a710a21b5dc78c0bdf72e11>@@AEAV<lambda_92619d2358a28f41a33ba319515a20b9>@@V<lambda_6992ecaafeb10aed2b74cb1fae11a551>@@@?$__crt_seh_guarded_call@X@@QEAAX$$QEAV<lambda_aa87e3671a710a21b5dc78c0bdf72e11>@@AEAV<lambda_92619d2358a28f41a33ba319515a20b9>@@$$QEAV<lambda_6992ecaafeb10aed2b74cb1fae11a551>@@@Z 000000018002cd98     libucrt:per_thread_data.obj
 0004:00000da4       $pdata$??$?RV<lambda_f2e299630e499de9f9a165e60fcd3db5>@@AEAV<lambda_2ae9d31cdba2644fcbeaf08da7c24588>@@V<lambda_40d01ff24d0e7b3814fdbdcee8eab3c7>@@@?$__crt_seh_guarded_call@X@@QEAAX$$QEAV<lambda_f2e299630e499de9f9a165e60fcd3db5>@@AEAV<lambda_2ae9d31cdba2644fcbeaf08da7c24588>@@$$QEAV<lambda_40d01ff24d0e7b3814fdbdcee8eab3c7>@@@Z 000000018002cda4     libucrt:per_thread_data.obj
 0004:00000db0       $pdata$?construct_ptd_array@@YAXQEAU__acrt_ptd@@@Z 000000018002cdb0     libucrt:per_thread_data.obj
 0004:00000dbc       $pdata$?destroy_fls@@YAXPEAX@Z 000000018002cdbc     libucrt:per_thread_data.obj
 0004:00000dc8       $pdata$?destroy_ptd_array@@YAXQEAU__acrt_ptd@@@Z 000000018002cdc8     libucrt:per_thread_data.obj
 0004:00000dd4       $pdata$?replace_current_thread_locale_nolock@@YAXQEAU__acrt_ptd@@QEAU__crt_locale_data@@@Z 000000018002cdd4     libucrt:per_thread_data.obj
 0004:00000de0       $pdata$__acrt_freeptd      000000018002cde0     libucrt:per_thread_data.obj
 0004:00000dec       $pdata$__acrt_getptd       000000018002cdec     libucrt:per_thread_data.obj
 0004:00000df8       $pdata$__acrt_getptd_head  000000018002cdf8     libucrt:per_thread_data.obj
 0004:00000e04       $pdata$__acrt_getptd_noexit 000000018002ce04     libucrt:per_thread_data.obj
 0004:00000e10       $pdata$__acrt_initialize_ptd 000000018002ce10     libucrt:per_thread_data.obj
 0004:00000e1c       $pdata$__acrt_uninitialize_ptd 000000018002ce1c     libucrt:per_thread_data.obj
 0004:00000e28       $pdata$__acrt_update_locale_info 000000018002ce28     libucrt:locale_update.obj
 0004:00000e34       $pdata$__acrt_update_multibyte_info 000000018002ce34     libucrt:locale_update.obj
 0004:00000e40       $pdata$??$?RV<lambda_410d79af7f07d98d83a3f525b3859a53>@@AEAV<lambda_3e16ef9562a7dcce91392c22ab16ea36>@@V<lambda_38119f0e861e05405d8a144b9b982f0a>@@@?$__crt_seh_guarded_call@X@@QEAAX$$QEAV<lambda_410d79af7f07d98d83a3f525b3859a53>@@AEAV<lambda_3e16ef9562a7dcce91392c22ab16ea36>@@$$QEAV<lambda_38119f0e861e05405d8a144b9b982f0a>@@@Z 000000018002ce40     libucrt:wsetlocale.obj
 0004:00000e4c       $pdata$__acrt_uninitialize_locale 000000018002ce4c     libucrt:wsetlocale.obj
 0004:00000e58       $pdata$isdigit             000000018002ce58     libucrt:_ctype.obj
 0004:00000e64       $pdata$?internal_isupper_l@@YA_NHQEAU__crt_locale_pointers@@@Z 000000018002ce64     libucrt:tolower_toupper.obj
 0004:00000e70       $pdata$_tolower_l          000000018002ce70     libucrt:tolower_toupper.obj
 0004:00000e7c       $pdata$tolower             000000018002ce7c     libucrt:tolower_toupper.obj
 0004:00000e88       $pdata$_free_base          000000018002ce88     libucrt:free_base.obj
 0004:00000e94       $pdata$_malloc_base        000000018002ce94     libucrt:malloc_base.obj
 0004:00000ea0       $pdata$_mbtowc_l           000000018002cea0     libucrt:mbtowc.obj
 0004:00000eac       $pdata$_wctomb_s_l         000000018002ceac     libucrt:wctomb.obj
 0004:00000eb8       $pdata$wctomb_s            000000018002ceb8     libucrt:wctomb.obj
 0004:00000ec4       $pdata$?fp_format_a@@YAHQEBNPEAD_KQEAD2H_NIQEAU__crt_locale_pointers@@@Z 000000018002cec4     libucrt:cvt.obj
 0004:00000ed0       $pdata$?fp_format_e@@YAHQEBNQEAD_K12H_NIQEAU__crt_locale_pointers@@@Z 000000018002ced0     libucrt:cvt.obj
 0004:00000edc       $pdata$?fp_format_e_internal@@YAHQEAD_KH_NIQEAU_strflt@@2QEAU__crt_locale_pointers@@@Z 000000018002cedc     libucrt:cvt.obj
 0004:00000ee8       $pdata$?fp_format_f_internal@@YAHQEAD_KHQEAU_strflt@@_NQEAU__crt_locale_pointers@@@Z 000000018002cee8     libucrt:cvt.obj
 0004:00000ef4       $pdata$?fp_format_g@@YAHQEBNQEAD_K12H_NIQEAU__crt_locale_pointers@@@Z 000000018002cef4     libucrt:cvt.obj
 0004:00000f00       $pdata$?fp_format_nan_or_infinity@@YAHW4__acrt_fp_class@@_NPEAD_K1@Z 000000018002cf00     libucrt:cvt.obj
 0004:00000f0c       $pdata$__acrt_fp_format    000000018002cf0c     libucrt:cvt.obj
 0004:00000f18       $pdata$_fputwc_nolock      000000018002cf18     libucrt:fputwc.obj
 0004:00000f24       $pdata$_fileno             000000018002cf24     libucrt:fileno.obj
 0004:00000f30       $pdata$__acrt_initialize_stdio 000000018002cf30     libucrt:_file.obj
 0004:00000f3c       $pdata$__acrt_uninitialize_stdio 000000018002cf3c     libucrt:_file.obj
 0004:00000f48       $pdata$__acrt_stdio_begin_temporary_buffering_nolock 000000018002cf48     libucrt:_sftbuf.obj
 0004:00000f54       $pdata$__acrt_stdio_end_temporary_buffering_nolock 000000018002cf54     libucrt:_sftbuf.obj
 0004:00000f60       $pdata$?initialize_inherited_file_handles_nolock@@YAXXZ 000000018002cf60     libucrt:ioinit.obj
 0004:00000f6c       $pdata$?initialize_stdio_handles_nolock@@YAXXZ 000000018002cf6c     libucrt:ioinit.obj
 0004:00000f78       $pdata$__acrt_initialize_lowio 000000018002cf78     libucrt:ioinit.obj
 0004:00000f84       $pdata$__acrt_uninitialize_lowio 000000018002cf84     libucrt:ioinit.obj
 0004:00000f90       $pdata$??$common_xtox@K_W@@YAHKQEA_W_KI_N@Z 000000018002cf90     libucrt:xtoa.obj
 0004:00000f9c       $pdata$??$common_xtox_s@K_W@@YAHKQEA_W_KI_N@Z 000000018002cf9c     libucrt:xtoa.obj
 0004:00000fa8       $pdata$_itow_s             000000018002cfa8     libucrt:xtoa.obj
 0004:00000fb4       $pdata$_set_error_mode     000000018002cfb4     libucrt:set_error_mode.obj
 0004:00000fc0       $pdata$wcscat_s            000000018002cfc0     libucrt:wcscat_s.obj
 0004:00000fcc       $pdata$wcscpy_s            000000018002cfcc     libucrt:wcscpy_s.obj
 0004:00000fd8       $pdata$wcsncat_s           000000018002cfd8     libucrt:wcsncat_s.obj
 0004:00000fe4       $pdata$__acrt_GetModuleFileNameA 000000018002cfe4     libucrt:getmodulefilenamea.obj
 0004:00000ff0       $pdata$__acrt_show_wide_message_box 000000018002cff0     libucrt:crtmbox.obj
 0004:00000ffc       $pdata$??$?RV<lambda_842d9ff0dc9ef11c61343bbaebe7f885>@@AEAV<lambda_c5860995281e5c4ce005b3de8f5874ee>@@V<lambda_d90129c13df834fdcbf8d2b88dafcf2d>@@@?$__crt_seh_guarded_call@X@@QEAAX$$QEAV<lambda_842d9ff0dc9ef11c61343bbaebe7f885>@@AEAV<lambda_c5860995281e5c4ce005b3de8f5874ee>@@$$QEAV<lambda_d90129c13df834fdcbf8d2b88dafcf2d>@@@Z 000000018002cffc     libucrt:fflush.obj
 0004:00001008       $pdata$??$?RV<lambda_886d6c58226a84441f68b9f2b8217b83>@@AEAV<lambda_ab61a845afdef5b7c387490eaf3616ee>@@V<lambda_f7f22ab5edc0698d5f6905b0d3f44752>@@@?$__crt_seh_guarded_call@X@@QEAAX$$QEAV<lambda_886d6c58226a84441f68b9f2b8217b83>@@AEAV<lambda_ab61a845afdef5b7c387490eaf3616ee>@@$$QEAV<lambda_f7f22ab5edc0698d5f6905b0d3f44752>@@@Z 000000018002d008     libucrt:fflush.obj
 0004:00001014       $pdata$??$?RV<lambda_c376a267cfb53b6959b3b692ec76b120>@@AEAV<lambda_9a32fed5bf61b6b509b2d3f6003082a1>@@V<lambda_572fbb9fa0ab338edf41edfd4b5fcc8d>@@@?$__crt_seh_guarded_call@H@@QEAAH$$QEAV<lambda_c376a267cfb53b6959b3b692ec76b120>@@AEAV<lambda_9a32fed5bf61b6b509b2d3f6003082a1>@@$$QEAV<lambda_572fbb9fa0ab338edf41edfd4b5fcc8d>@@@Z 000000018002d014     libucrt:fflush.obj
 0004:00001020       $pdata$?common_flush_all@@YAH_N@Z 000000018002d020     libucrt:fflush.obj
 0004:0000102c       $pdata$__acrt_stdio_flush_nolock 000000018002d02c     libucrt:fflush.obj
 0004:00001038       $pdata$_fflush_nolock      000000018002d038     libucrt:fflush.obj
 0004:00001044       $pdata$fflush              000000018002d044     libucrt:fflush.obj
 0004:00001050       $pdata$??$?RV<lambda_84ec643ea9557e2f7dc01bb0e9624395>@@AEAV<lambda_ca71763b3c0644891230e4f79ea54fa6>@@V<lambda_439a761618c59b0600e24586724d733b>@@@?$__crt_seh_guarded_call@H@@QEAAH$$QEAV<lambda_84ec643ea9557e2f7dc01bb0e9624395>@@AEAV<lambda_ca71763b3c0644891230e4f79ea54fa6>@@$$QEAV<lambda_439a761618c59b0600e24586724d733b>@@@Z 000000018002d050     libucrt:setvbuf.obj
 0004:0000105c       $pdata$??R<lambda_ca71763b3c0644891230e4f79ea54fa6>@@QEBAHXZ 000000018002d05c     libucrt:setvbuf.obj
 0004:00001068       $pdata$setvbuf             000000018002d068     libucrt:setvbuf.obj
 0004:00001074       $pdata$??$?RV<lambda_450d765d439847d4c735a33c368b5fc0>@@AEAV<lambda_44731a7d0e6d81c3e6aa82d741081786>@@V<lambda_601a2a7da3b7a96e9554ac7215c4b07c>@@@?$__crt_seh_guarded_call@P6AXH@Z@@QEAAP6AXH@Z$$QEAV<lambda_450d765d439847d4c735a33c368b5fc0>@@AEAV<lambda_44731a7d0e6d81c3e6aa82d741081786>@@$$QEAV<lambda_601a2a7da3b7a96e9554ac7215c4b07c>@@@Z 000000018002d074     libucrt:signal.obj
 0004:00001080       $pdata$__acrt_get_sigabrt_handler 000000018002d080     libucrt:signal.obj
 0004:0000108c       $pdata$raise               000000018002d08c     libucrt:signal.obj
 0004:00001098       $pdata$_calloc_base        000000018002d098     libucrt:calloc_base.obj
 0004:000010a4       $pdata$?_mbstowcs_l_helper@@YA_KPEA_WPEBD_KPEAU__crt_locale_pointers@@@Z 000000018002d0a4     libucrt:mbstowcs.obj
 0004:000010b0       $pdata$strncpy_s           000000018002d0b0     libucrt:strncpy_s.obj
 0004:000010bc       $pdata$__acrt_initialize_locks 000000018002d0bc     libucrt:locks.obj
 0004:000010c8       $pdata$__acrt_uninitialize_locks 000000018002d0c8     libucrt:locks.obj
 0004:000010d4       $pdata$__acrt_get_developer_information_policy 000000018002d0d4     libucrt:win_policies.obj
 0004:000010e0       $pdata$__acrt_get_process_end_policy 000000018002d0e0     libucrt:win_policies.obj
 0004:000010ec       $pdata$__acrt_get_windowing_model_policy 000000018002d0ec     libucrt:win_policies.obj
 0004:000010f8       $pdata$??$common_expand_argv_wildcards@D@@YAHQEAPEADQEAPEAPEAD@Z 000000018002d0f8     libucrt:argv_wildcards.obj
 0004:00001104       $pdata$??$copy_and_add_argument_to_buffer@D@@YAHQEBD0_KAEAV?$argument_list@D@?A0x5f5c8891@@@Z 000000018002d104     libucrt:argv_wildcards.obj
 0004:00001110       $pdata$??$expand_argument_wildcards@D@@YAHQEAD0AEAV?$argument_list@D@?A0x5f5c8891@@@Z 000000018002d110     libucrt:argv_wildcards.obj
 0004:0000111c       $pdata$??$?RV<lambda_efdfa57d1f175319df784efa44bb7b81>@@AEAV<lambda_5f0a4c1567f8adc6734073e5d1e1b35c>@@V<lambda_2e8a7d3640ea6ccb4c2413664c2db6fd>@@@?$__crt_seh_guarded_call@X@@QEAAX$$QEAV<lambda_efdfa57d1f175319df784efa44bb7b81>@@AEAV<lambda_5f0a4c1567f8adc6734073e5d1e1b35c>@@$$QEAV<lambda_2e8a7d3640ea6ccb4c2413664c2db6fd>@@@Z 000000018002d11c     libucrt:mbctype.obj
 0004:00001128       $pdata$?getSystemCP@@YAHH@Z 000000018002d128     libucrt:mbctype.obj
 0004:00001134       $pdata$?setSBCS@@YAXPEAU__crt_multibyte_data@@@Z 000000018002d134     libucrt:mbctype.obj
 0004:00001140       $pdata$?setSBUpLow@@YAXPEAU__crt_multibyte_data@@@Z 000000018002d140     libucrt:mbctype.obj
 0004:0000114c       $pdata$?setmbcp_internal@@YAHH_NQEAU__acrt_ptd@@QEAPEAU__crt_multibyte_data@@@Z 000000018002d14c     libucrt:mbctype.obj
 0004:00001158       $pdata$?update_thread_multibyte_data_internal@@YAPEAU__crt_multibyte_data@@QEAU__acrt_ptd@@QEAPEAU1@@Z 000000018002d158     libucrt:mbctype.obj
 0004:00001164       $pdata$__acrt_initialize_multibyte 000000018002d164     libucrt:mbctype.obj
 0004:00001170       $pdata$__acrt_update_thread_multibyte_data 000000018002d170     libucrt:mbctype.obj
 0004:0000117c       $pdata$_setmbcp_nolock     000000018002d17c     libucrt:mbctype.obj
 0004:00001188       $pdata$?x_ismbbtype_l@@YAHPEAU__crt_locale_pointers@@IHH@Z 000000018002d188     libucrt:ismbbyte.obj
 0004:00001194       $pdata$__acrt_initialize_command_line 000000018002d194     libucrt:argv_data.obj
 0004:000011a0       $pdata$__acrt_WideCharToMultiByte 000000018002d1a0     libucrt:widechartomultibyte.obj
 0004:000011ac       $pdata$__dcrt_get_narrow_environment_from_os 000000018002d1ac     libucrt:get_environment_from_os.obj
 0004:000011b8       $pdata$_recalloc_base      000000018002d1b8     libucrt:recalloc.obj
 0004:000011c4       $pdata$?try_get_function@@YAPEAXW4function_id@?A0x391cf84c@@QEBDQEBW4module_id@2@2@Z 000000018002d1c4     libucrt:winapi_thunks.obj
 0004:000011d0       $pdata$__acrt_AppPolicyGetProcessTerminationMethodInternal 000000018002d1d0     libucrt:winapi_thunks.obj
 0004:000011dc       $pdata$__acrt_AppPolicyGetShowDeveloperDiagnosticInternal 000000018002d1dc     libucrt:winapi_thunks.obj
 0004:000011e8       $pdata$__acrt_AppPolicyGetWindowingModelInternal 000000018002d1e8     libucrt:winapi_thunks.obj
 0004:000011f4       $pdata$__acrt_FlsAlloc     000000018002d1f4     libucrt:winapi_thunks.obj
 0004:00001200       $pdata$__acrt_FlsFree      000000018002d200     libucrt:winapi_thunks.obj
 0004:0000120c       $pdata$__acrt_FlsGetValue  000000018002d20c     libucrt:winapi_thunks.obj
 0004:00001218       $pdata$__acrt_FlsSetValue  000000018002d218     libucrt:winapi_thunks.obj
 0004:00001224       $pdata$__acrt_InitializeCriticalSectionEx 000000018002d224     libucrt:winapi_thunks.obj
 0004:00001230       $pdata$__acrt_LCMapStringEx 000000018002d230     libucrt:winapi_thunks.obj
 0004:0000123c       $pdata$__acrt_LocaleNameToLCID 000000018002d23c     libucrt:winapi_thunks.obj
 0004:00001248       $pdata$__acrt_MessageBoxW  000000018002d248     libucrt:winapi_thunks.obj
 0004:00001254       $pdata$__acrt_can_show_message_box 000000018002d254     libucrt:winapi_thunks.obj
 0004:00001260       $pdata$__acrt_get_parent_window 000000018002d260     libucrt:winapi_thunks.obj
 0004:0000126c       $pdata$__acrt_initialize_winapi_thunks 000000018002d26c     libucrt:winapi_thunks.obj
 0004:00001278       $pdata$__acrt_is_interactive 000000018002d278     libucrt:winapi_thunks.obj
 0004:00001284       $pdata$__acrt_uninitialize_winapi_thunks 000000018002d284     libucrt:winapi_thunks.obj
 0004:00001290       $pdata$__acrt_initialize_heap 000000018002d290     libucrt:heap_handle.obj
 0004:0000129c       $pdata$__acrt_execute_initializers 000000018002d29c     libucrt:shared_initialization.obj
 0004:000012a8       $pdata$__acrt_execute_uninitializers 000000018002d2a8     libucrt:shared_initialization.obj
 0004:000012b4       $pdata$_isleadbyte_l       000000018002d2b4     libucrt:_wctype.obj
 0004:000012c0       $pdata$__acrt_GetStringTypeA 000000018002d2c0     libucrt:getstringtypea.obj
 0004:000012cc       $pdata$__acrt_free_locale  000000018002d2cc     libucrt:locale_refcounting.obj
 0004:000012d8       $pdata$__acrt_locale_free_lc_time_if_unreferenced 000000018002d2d8     libucrt:locale_refcounting.obj
 0004:000012e4       $pdata$__acrt_release_locale_ref 000000018002d2e4     libucrt:locale_refcounting.obj
 0004:000012f0       $pdata$__acrt_update_thread_locale_data 000000018002d2f0     libucrt:locale_refcounting.obj
 0004:000012fc       $pdata$_updatetlocinfoEx_nolock 000000018002d2fc     libucrt:locale_refcounting.obj
 0004:00001308       $pdata$__acrt_locale_free_monetary 000000018002d308     libucrt:initmon.obj
 0004:00001314       $pdata$__acrt_locale_free_numeric 000000018002d314     libucrt:initnum.obj
 0004:00001320       $pdata$?free_crt_array_internal@@YAXQEAPEBX_K@Z 000000018002d320     libucrt:inittime.obj
 0004:0000132c       $pdata$__acrt_locale_free_time 000000018002d32c     libucrt:inittime.obj
 0004:00001338       $pdata$?__acrt_LCMapStringA_stat@@YAHPEAU__crt_locale_pointers@@PEB_WKPEBDHPEADHHH@Z 000000018002d338     libucrt:lcmapstringa.obj
 0004:00001344       $pdata$__acrt_LCMapStringA 000000018002d344     libucrt:lcmapstringa.obj
 0004:00001350       $pdata$?__mbrtowc_utf8@__crt_mbstring@@YA_KPEA_WPEBD_KPEAU_Mbstatet@@@Z 000000018002d350     libucrt:mbrtowc.obj
 0004:0000135c       $pdata$?__mbsrtowcs_utf8@__crt_mbstring@@YA_KPEA_WPEAPEBD_KPEAU_Mbstatet@@@Z 000000018002d35c     libucrt:mbrtowc.obj
 0004:00001368       $pdata$__acrt_fp_strflt_to_string 000000018002d368     libucrt:_fptostr.obj
 0004:00001374       $pdata$?divide@__crt_strtox@@YA_KAEAUbig_integer@1@AEBU21@@Z 000000018002d374     libucrt:cfout.obj
 0004:00001380       $pdata$0$?divide@__crt_strtox@@YA_KAEAUbig_integer@1@AEBU21@@Z 000000018002d380     libucrt:cfout.obj
 0004:0000138c       $pdata$6$?divide@__crt_strtox@@YA_KAEAUbig_integer@1@AEBU21@@Z 000000018002d38c     libucrt:cfout.obj
 0004:00001398       $pdata$7$?divide@__crt_strtox@@YA_KAEAUbig_integer@1@AEBU21@@Z 000000018002d398     libucrt:cfout.obj
 0004:000013a4       $pdata$8$?divide@__crt_strtox@@YA_KAEAUbig_integer@1@AEBU21@@Z 000000018002d3a4     libucrt:cfout.obj
 0004:000013b0       $pdata$__acrt_fltout       000000018002d3b0     libucrt:cfout.obj
 0004:000013bc       $pdata$memcpy_s            000000018002d3bc     libucrt:cfout.obj
 0004:000013c8       $pdata$??$write_buffer_nolock@D@@YA_NDV__crt_stdio_stream@@@Z 000000018002d3c8     libucrt:_flsbuf.obj
 0004:000013d4       $pdata$??$write_buffer_nolock@_W@@YA_N_WV__crt_stdio_stream@@@Z 000000018002d3d4     libucrt:_flsbuf.obj
 0004:000013e0       $pdata$__acrt_stdio_flush_and_write_narrow_nolock 000000018002d3e0     libucrt:_flsbuf.obj
 0004:000013ec       $pdata$__acrt_stdio_flush_and_write_wide_nolock 000000018002d3ec     libucrt:_flsbuf.obj
 0004:000013f8       $pdata$_fcloseall          000000018002d3f8     libucrt:closeall.obj
 0004:00001404       $pdata$__acrt_stdio_free_buffer_nolock 000000018002d404     libucrt:_freebuf.obj
 0004:00001410       $pdata$_isatty             000000018002d410     libucrt:isatty.obj
 0004:0000141c       $pdata$__acrt_lowio_create_handle_array 000000018002d41c     libucrt:osfinfo.obj
 0004:00001428       $pdata$__acrt_lowio_destroy_handle_array 000000018002d428     libucrt:osfinfo.obj
 0004:00001434       $pdata$__acrt_lowio_ensure_fh_exists 000000018002d434     libucrt:osfinfo.obj
 0004:00001440       $pdata$_free_osfhnd        000000018002d440     libucrt:osfinfo.obj
 0004:0000144c       $pdata$_get_osfhandle      000000018002d44c     libucrt:osfinfo.obj
 0004:00001458       $pdata$??$?RV<lambda_a37b2b86f63e897a80ea819b0eb08c01>@@AEAV<lambda_38ce7e780aa69e748d6df282ebc68efe>@@V<lambda_99fb1378e971ab6e7edea83e3a7a83a2>@@@?$__crt_seh_guarded_call@H@@QEAAH$$QEAV<lambda_a37b2b86f63e897a80ea819b0eb08c01>@@AEAV<lambda_38ce7e780aa69e748d6df282ebc68efe>@@$$QEAV<lambda_99fb1378e971ab6e7edea83e3a7a83a2>@@@Z 000000018002d458     libucrt:commit.obj
 0004:00001464       $pdata$_commit             000000018002d464     libucrt:commit.obj
 0004:00001470       $pdata$?write_double_translated_ansi_nolock@@YA?AUwrite_result@?A0x17268360@@HQEBDI@Z 000000018002d470     libucrt:write.obj
 0004:0000147c       $pdata$?write_text_ansi_nolock@@YA?AUwrite_result@?A0x17268360@@HQEBDI@Z 000000018002d47c     libucrt:write.obj
 0004:00001488       $pdata$?write_text_utf16le_nolock@@YA?AUwrite_result@?A0x17268360@@HQEBDI@Z 000000018002d488     libucrt:write.obj
 0004:00001494       $pdata$?write_text_utf8_nolock@@YA?AUwrite_result@?A0x17268360@@HQEBDI@Z 000000018002d494     libucrt:write.obj
 0004:000014a0       $pdata$_write              000000018002d4a0     libucrt:write.obj
 0004:000014ac       $pdata$_write_nolock       000000018002d4ac     libucrt:write.obj
 0004:000014b8       $pdata$qsort               000000018002d4b8     libucrt:qsort.obj
 0004:000014c4       $pdata$4$qsort             000000018002d4c4     libucrt:qsort.obj
 0004:000014d0       $pdata$5$qsort             000000018002d4d0     libucrt:qsort.obj
 0004:000014dc       $pdata$fallbackMethod      000000018002d4dc     libucrt:strpbrk.obj
 0004:000014e8       $pdata$strpbrk             000000018002d4e8     libucrt:strpbrk.obj
 0004:000014f4       $pdata$??$__acrt_convert_wcs_mbs@D_W$$A6A_KPEA_WPEBD_KPEAU__crt_locale_pointers@@@ZU__crt_win32_buffer_internal_dynamic_resizing@@@@YAHQEBDAEAV?$__crt_win32_buffer@_WU__crt_win32_buffer_internal_dynamic_resizing@@@@A6A_KPEA_WPEBD_KPEAU__crt_locale_pointers@@@Z5@Z 000000018002d4f4     libucrt:findfirstfileexa.obj
 0004:00001500       $pdata$__acrt_FindFirstFileExA 000000018002d500     libucrt:findfirstfileexa.obj
 0004:0000150c       $pdata$??$__acrt_convert_wcs_mbs@_WD$$A6A_KPEADPEB_W_KPEAU__crt_locale_pointers@@@ZU__crt_win32_buffer_no_resizing@@@@YAHQEB_WAEAV?$__crt_win32_buffer@DU__crt_win32_buffer_no_resizing@@@@A6A_KPEADPEB_W_KPEAU__crt_locale_pointers@@@Z5@Z 000000018002d50c     libucrt:findnextfilea.obj
 0004:00001518       $pdata$__acrt_FindNextFileA 000000018002d518     libucrt:findnextfilea.obj
 0004:00001524       $pdata$_mbsdec_l           000000018002d524     libucrt:mbsdec.obj
 0004:00001530       $pdata$?initialize_multibyte@@YAHXZ 000000018002d530     libucrt:multibyte_initializer.obj
 0004:0000153c       $pdata$_msize_base         000000018002d53c     libucrt:msize.obj
 0004:00001548       $pdata$_realloc_base       000000018002d548     libucrt:realloc_base.obj
 0004:00001554       $pdata$?GetTableIndexFromLocaleName@@YAHPEB_W@Z 000000018002d554     libucrt:lcidtoname_downlevel.obj
 0004:00001560       $pdata$__acrt_DownlevelLocaleNameToLCID 000000018002d560     libucrt:lcidtoname_downlevel.obj
 0004:0000156c       $pdata$?__mbrtoc32_utf8@__crt_mbstring@@YA_KPEA_UPEBD_KPEAU_Mbstatet@@@Z 000000018002d56c     libucrt:mbrtoc32.obj
 0004:00001578       $pdata$fegetenv            000000018002d578     libucrt:fegetenv.obj
 0004:00001584       $pdata$fesetenv            000000018002d584     libucrt:fesetenv.obj
 0004:00001590       $pdata$feholdexcept        000000018002d590     libucrt:feholdexcept.obj
 0004:000015a8       $pdata$??$common_lseek@_J@@YA_JH_JH@Z 000000018002d5a8     libucrt:lseek.obj
 0004:000015b4       $pdata$??$common_lseek_nolock@_J@@YA_JH_JH@Z 000000018002d5b4     libucrt:lseek.obj
 0004:000015c0       $pdata$__acrt_stdio_allocate_buffer_nolock 000000018002d5c0     libucrt:_getbuf.obj
 0004:000015cc       $pdata$_fclose_nolock      000000018002d5cc     libucrt:fclose.obj
 0004:000015d8       $pdata$fclose              000000018002d5d8     libucrt:fclose.obj
 0004:000015e4       $pdata$_putwch_nolock      000000018002d5e4     libucrt:putwch.obj
 0004:000015f0       $pdata$?_wcstombs_l_helper@@YA_KPEADPEB_W_KPEAU__crt_locale_pointers@@@Z 000000018002d5f0     libucrt:wcstombs.obj
 0004:000015fc       $pdata$__acrt_fenv_set_control 000000018002d5fc     libucrt:_fenvutils.obj
 0004:00001608       $pdata$_clearfp            000000018002d608     libucrt:ieee.obj
 0004:00001614       $pdata$_call_matherr       000000018002d614     libucrt:libm_error.obj
 0004:00001620       $pdata$_exception_enabled  000000018002d620     libucrt:libm_error.obj
 0004:0000162c       $pdata$_handle_error       000000018002d62c     libucrt:libm_error.obj
 0004:00001638       $pdata$__acrt_initialize_fma3 000000018002d638     libucrt:fma3_available.obj
 0004:00001644       $pdata$_log10_special      000000018002d644     libucrt:log_special.obj
 0004:00001650       $pdata$_log_special_common 000000018002d650     libucrt:log_special.obj
 0004:0000165c       $pdata$??$?RV<lambda_751a882b2c74d4b022dec766aa51a29a>@@AEAV<lambda_628dfdc04ba53c8bfc02c9951375f3f5>@@V<lambda_f6c7be5f7998530c34de24c7437d6b54>@@@?$__crt_seh_guarded_call@H@@QEAAH$$QEAV<lambda_751a882b2c74d4b022dec766aa51a29a>@@AEAV<lambda_628dfdc04ba53c8bfc02c9951375f3f5>@@$$QEAV<lambda_f6c7be5f7998530c34de24c7437d6b54>@@@Z 000000018002d65c     libucrt:close.obj
 0004:00001668       $pdata$_close              000000018002d668     libucrt:close.obj
 0004:00001674       $pdata$_close_nolock       000000018002d674     libucrt:close.obj
 0004:00001680       $pdata$__dcrt_lowio_ensure_console_output_initialized 000000018002d680     libucrt:initcon.obj
 0004:0000168c       $pdata$__dcrt_terminate_console_output 000000018002d68c     libucrt:initcon.obj
 0004:00001698       $pdata$__dcrt_write_console 000000018002d698     libucrt:initcon.obj
 0004:000016a4       $pdata$?__wcsrtombs_utf8@__crt_mbstring@@YA_KPEADPEAPEB_W_KPEAU_Mbstatet@@@Z 000000018002d6a4     libucrt:wcrtomb.obj
 0004:000016bc       $pdata$_raise_exc          000000018002d6bc     libucrt:fpexcept.obj
 0004:000016c8       $pdata$_raise_exc_ex       000000018002d6c8     libucrt:fpexcept.obj
 0004:000016d4       $pdata$_set_errno_from_matherr 000000018002d6d4     libucrt:fpexcept.obj
 0004:000016e0       $pdata$_clrfp              000000018002d6e0     libucrt:fpctrl.obj
 0004:000016ec       $pdata$_ctrlfp             000000018002d6ec     libucrt:fpctrl.obj
 0004:000016f8       $pdata$_set_statfp         000000018002d6f8     libucrt:fpctrl.obj
 0004:00001704       $pdata$_statfp             000000018002d704     libucrt:fpctrl.obj
 0004:00001710       $pdata$?__c16rtomb_utf8@__crt_mbstring@@YA_KPEAD_SPEAU_Mbstatet@@@Z 000000018002d710     libucrt:c16rtomb.obj
 0004:0000171c       $pdata$?__c32rtomb_utf8@__crt_mbstring@@YA_KPEAD_UPEAU_Mbstatet@@@Z 000000018002d71c     libucrt:c32rtomb.obj
 0004:00001728       $pdata$?DloadAcquireSectionWriteAccess@@YAXXZ 000000018002d728     DelayImp:delayhlp.obj
 0004:00001734       $pdata$?DloadGetSRWLockFunctionPointers@@YAEXZ 000000018002d734     DelayImp:delayhlp.obj
 0004:00001740       $pdata$?DloadMakePermanentImageCommit@@YAXPEAX_K@Z 000000018002d740     DelayImp:delayhlp.obj
 0004:0000174c       $pdata$?DloadObtainSection@@YAPEAXPEAK0@Z 000000018002d74c     DelayImp:delayhlp.obj
 0004:00001758       $pdata$?DloadProtectSection@@YAXKPEAK@Z 000000018002d758     DelayImp:delayhlp.obj
 0004:00001764       $pdata$?DloadReleaseSectionWriteAccess@@YAXXZ 000000018002d764     DelayImp:delayhlp.obj
 0004:00001770       $pdata$__delayLoadHelper2  000000018002d770     DelayImp:delayhlp.obj
 0004:0000177c       $pdata$_IsNonwritableInCurrentImage 000000018002d77c     LIBCMT:pesect.obj
 0004:00001788       $pdata$__GSHandlerCheck    000000018002d788     LIBCMT:_gshandler_.obj
 0004:00001794       $pdata$__GSHandlerCheckCommon 000000018002d794     LIBCMT:_gshandler_.obj
 0004:000017ac       $pdata$__GSHandlerCheck_EH 000000018002d7ac     LIBCMT:gshandlereh.obj
 0004:000017c4       $pdata$strrchr             000000018002d7c4     libvcruntime:strrchr.obj
 0004:000017dc       $pdata$?fin$0@?0??dllmain_crt_process_attach@@YAHQEAUHINSTANCE__@@QEAX@Z@4HA 000000018002d7dc     LIBCMT:dll_dllmain.obj
 0004:000017e8       $pdata$?fin$0@?0??dllmain_crt_process_detach@@YAH_N@Z@4HA 000000018002d7e8     LIBCMT:dll_dllmain.obj
 0004:000017f4       $pdata$?filt$0@?0??dllmain_dispatch@@YAHQEAUHINSTANCE__@@KQEAX@Z@4HA 000000018002d7f4     LIBCMT:dll_dllmain.obj
 0004:00001800       $pdata$__scrt_is_nonwritable_in_current_image$filt$0 000000018002d800     LIBCMT:utility.obj
 0004:0000180c       $pdata$__DestructExceptionObject$filt$0 000000018002d80c     libvcruntime:ehhelpers.obj
 0004:00001818       $pdata$?filt$0@?0???$_CallSETranslator@V__FrameHandler3@@@@YAHPEAUEHExceptionRecord@@PEA_KPEAU_CONTEXT@@PEAU_xDISPATCHER_CONTEXT@@PEBU_s_FuncInfo@@K1@Z@4HA 000000018002d818     libvcruntime:risctrnsctrl.obj
 0004:00001824       $pdata$?filt$0@?0??CxxCallCatchBlock@__FrameHandler3@@SAPEAXPEAU_EXCEPTION_RECORD@@@Z@4HA 000000018002d824     libvcruntime:frame.obj
 0004:00001830       $pdata$?fin$1@?0??CxxCallCatchBlock@__FrameHandler3@@SAPEAXPEAU_EXCEPTION_RECORD@@@Z@4HA 000000018002d830     libvcruntime:frame.obj
 0004:0000183c       $pdata$?filt$0@?0??FrameUnwindToState@__FrameHandler3@@SAXPEA_KPEAU_xDISPATCHER_CONTEXT@@PEBU_s_FuncInfo@@H@Z@4HA 000000018002d83c     libvcruntime:frame.obj
 0004:00001848       $pdata$?fin$1@?0??FrameUnwindToState@__FrameHandler3@@SAXPEA_KPEAU_xDISPATCHER_CONTEXT@@PEBU_s_FuncInfo@@H@Z@4HA 000000018002d848     libvcruntime:frame.obj
 0004:00001854       $pdata$?fin$0@?0???$?RV<lambda_c376a267cfb53b6959b3b692ec76b120>@@AEAV<lambda_9a32fed5bf61b6b509b2d3f6003082a1>@@V<lambda_572fbb9fa0ab338edf41edfd4b5fcc8d>@@@?$__crt_seh_guarded_call@H@@QEAAH$$QEAV<lambda_c376a267cfb53b6959b3b692ec76b120>@@AEAV<lambda_9a32fed5bf61b6b509b2d3f6003082a1>@@$$QEAV<lambda_572fbb9fa0ab338edf41edfd4b5fcc8d>@@@Z@4HA 000000018002d854     libucrt:fflush.obj
 0004:00001854       $pdata$?fin$0@?0???$?RV<lambda_0d412022a4b28cc8a401ea49574e8ae6>@@AEAV<lambda_a775ed57af18ba8e4d5dc780aa9068fe>@@V<lambda_975a71a6baa488a08f4e15f6b0339b9e>@@@?$__crt_seh_guarded_call@H@@QEAAH$$QEAV<lambda_0d412022a4b28cc8a401ea49574e8ae6>@@AEAV<lambda_a775ed57af18ba8e4d5dc780aa9068fe>@@$$QEAV<lambda_975a71a6baa488a08f4e15f6b0339b9e>@@@Z@4HA 000000018002d854     libucrt:output.obj
 0004:00001854       $pdata$?fin$0@?0???$?RV<lambda_84ec643ea9557e2f7dc01bb0e9624395>@@AEAV<lambda_ca71763b3c0644891230e4f79ea54fa6>@@V<lambda_439a761618c59b0600e24586724d733b>@@@?$__crt_seh_guarded_call@H@@QEAAH$$QEAV<lambda_84ec643ea9557e2f7dc01bb0e9624395>@@AEAV<lambda_ca71763b3c0644891230e4f79ea54fa6>@@$$QEAV<lambda_439a761618c59b0600e24586724d733b>@@@Z@4HA 000000018002d854     libucrt:setvbuf.obj
 0004:00001854       $pdata$?fin$0@?0???$?RV<lambda_842d9ff0dc9ef11c61343bbaebe7f885>@@AEAV<lambda_c5860995281e5c4ce005b3de8f5874ee>@@V<lambda_d90129c13df834fdcbf8d2b88dafcf2d>@@@?$__crt_seh_guarded_call@X@@QEAAX$$QEAV<lambda_842d9ff0dc9ef11c61343bbaebe7f885>@@AEAV<lambda_c5860995281e5c4ce005b3de8f5874ee>@@$$QEAV<lambda_d90129c13df834fdcbf8d2b88dafcf2d>@@@Z@4HA 000000018002d854     libucrt:fflush.obj
 0004:00001860       $pdata$_query_new_handler$fin$0 000000018002d860     libucrt:new_handler.obj
 0004:0000186c       $pdata$?fin$0@?0???$?RV<lambda_d80eeec6fff315bfe5c115232f3240e3>@@AEAV<lambda_6e4b09c48022b2350581041d5f6b0c4c>@@V<lambda_2358e3775559c9db80273638284d5e45>@@@?$__crt_seh_guarded_call@X@@QEAAX$$QEAV<lambda_d80eeec6fff315bfe5c115232f3240e3>@@AEAV<lambda_6e4b09c48022b2350581041d5f6b0c4c>@@$$QEAV<lambda_2358e3775559c9db80273638284d5e45>@@@Z@4HA 000000018002d86c     libucrt:exit.obj
 0004:0000186c       $pdata$?fin$0@?0???$?RV<lambda_efdfa57d1f175319df784efa44bb7b81>@@AEAV<lambda_5f0a4c1567f8adc6734073e5d1e1b35c>@@V<lambda_2e8a7d3640ea6ccb4c2413664c2db6fd>@@@?$__crt_seh_guarded_call@X@@QEAAX$$QEAV<lambda_efdfa57d1f175319df784efa44bb7b81>@@AEAV<lambda_5f0a4c1567f8adc6734073e5d1e1b35c>@@$$QEAV<lambda_2e8a7d3640ea6ccb4c2413664c2db6fd>@@@Z@4HA 000000018002d86c     libucrt:mbctype.obj
 0004:0000186c       $pdata$?fin$0@?0???$?RV<lambda_aa87e3671a710a21b5dc78c0bdf72e11>@@AEAV<lambda_92619d2358a28f41a33ba319515a20b9>@@V<lambda_6992ecaafeb10aed2b74cb1fae11a551>@@@?$__crt_seh_guarded_call@X@@QEAAX$$QEAV<lambda_aa87e3671a710a21b5dc78c0bdf72e11>@@AEAV<lambda_92619d2358a28f41a33ba319515a20b9>@@$$QEAV<lambda_6992ecaafeb10aed2b74cb1fae11a551>@@@Z@4HA 000000018002d86c     libucrt:per_thread_data.obj
 0004:0000186c       $pdata$?fin$0@?0???$?RV<lambda_7777bce6b2f8c936911f934f8298dc43>@@AEAV<lambda_f03950bc5685219e0bcd2087efbe011e>@@V<lambda_3883c3dff614d5e0c5f61bb1ac94921c>@@@?$__crt_seh_guarded_call@H@@QEAAH$$QEAV<lambda_7777bce6b2f8c936911f934f8298dc43>@@AEAV<lambda_f03950bc5685219e0bcd2087efbe011e>@@$$QEAV<lambda_3883c3dff614d5e0c5f61bb1ac94921c>@@@Z@4HA 000000018002d86c     libucrt:onexit.obj
 0004:0000186c       $pdata$?fin$0@?0???$?RV<lambda_450d765d439847d4c735a33c368b5fc0>@@AEAV<lambda_44731a7d0e6d81c3e6aa82d741081786>@@V<lambda_601a2a7da3b7a96e9554ac7215c4b07c>@@@?$__crt_seh_guarded_call@P6AXH@Z@@QEAAP6AXH@Z$$QEAV<lambda_450d765d439847d4c735a33c368b5fc0>@@AEAV<lambda_44731a7d0e6d81c3e6aa82d741081786>@@$$QEAV<lambda_601a2a7da3b7a96e9554ac7215c4b07c>@@@Z@4HA 000000018002d86c     libucrt:signal.obj
 0004:0000186c       $pdata$?fin$0@?0???$?RV<lambda_f2e299630e499de9f9a165e60fcd3db5>@@AEAV<lambda_2ae9d31cdba2644fcbeaf08da7c24588>@@V<lambda_40d01ff24d0e7b3814fdbdcee8eab3c7>@@@?$__crt_seh_guarded_call@X@@QEAAX$$QEAV<lambda_f2e299630e499de9f9a165e60fcd3db5>@@AEAV<lambda_2ae9d31cdba2644fcbeaf08da7c24588>@@$$QEAV<lambda_40d01ff24d0e7b3814fdbdcee8eab3c7>@@@Z@4HA 000000018002d86c     libucrt:per_thread_data.obj
 0004:0000186c       $pdata$?fin$0@?0???$?RV<lambda_2d41944a1d46af3157314b8a01080d33>@@AEAV<lambda_8f455de75cd7d7f24b4096f044d8b9e6>@@V<lambda_aa500f224e6afead328df44964fe2772>@@@?$__crt_seh_guarded_call@X@@QEAAX$$QEAV<lambda_2d41944a1d46af3157314b8a01080d33>@@AEAV<lambda_8f455de75cd7d7f24b4096f044d8b9e6>@@$$QEAV<lambda_aa500f224e6afead328df44964fe2772>@@@Z@4HA 000000018002d86c     libucrt:per_thread_data.obj
 0004:0000186c       $pdata$?fin$0@?0???$?RV<lambda_0ae27a3a962d80f24befdcbee591983d>@@AEAV<lambda_8d0ee55de4b1038c4002e0adecdf1839>@@V<lambda_dc504788e8f1664fe9b84e20bfb512f2>@@@?$__crt_seh_guarded_call@X@@QEAAX$$QEAV<lambda_0ae27a3a962d80f24befdcbee591983d>@@AEAV<lambda_8d0ee55de4b1038c4002e0adecdf1839>@@$$QEAV<lambda_dc504788e8f1664fe9b84e20bfb512f2>@@@Z@4HA 000000018002d86c     libucrt:per_thread_data.obj
 0004:00001878       $pdata$?filt$0@?0???R<lambda_6e4b09c48022b2350581041d5f6b0c4c>@@QEBA@XZ@4HA 000000018002d878     libucrt:exit.obj
 0004:00001884       $pdata$?fin$0@?0???$?RV<lambda_410d79af7f07d98d83a3f525b3859a53>@@AEAV<lambda_3e16ef9562a7dcce91392c22ab16ea36>@@V<lambda_38119f0e861e05405d8a144b9b982f0a>@@@?$__crt_seh_guarded_call@X@@QEAAX$$QEAV<lambda_410d79af7f07d98d83a3f525b3859a53>@@AEAV<lambda_3e16ef9562a7dcce91392c22ab16ea36>@@$$QEAV<lambda_38119f0e861e05405d8a144b9b982f0a>@@@Z@4HA 000000018002d884     libucrt:wsetlocale.obj
 0004:00001890       $pdata$__acrt_lowio_ensure_fh_exists$fin$0 000000018002d890     libucrt:osfinfo.obj
 0004:00001890       $pdata$__acrt_initialize_lowio$fin$0 000000018002d890     libucrt:ioinit.obj
 0004:0000189c       $pdata$?fin$0@?0???$?RV<lambda_886d6c58226a84441f68b9f2b8217b83>@@AEAV<lambda_ab61a845afdef5b7c387490eaf3616ee>@@V<lambda_f7f22ab5edc0698d5f6905b0d3f44752>@@@?$__crt_seh_guarded_call@X@@QEAAX$$QEAV<lambda_886d6c58226a84441f68b9f2b8217b83>@@AEAV<lambda_ab61a845afdef5b7c387490eaf3616ee>@@$$QEAV<lambda_f7f22ab5edc0698d5f6905b0d3f44752>@@@Z@4HA 000000018002d89c     libucrt:fflush.obj
 0004:000018a8       $pdata$raise$fin$0         000000018002d8a8     libucrt:signal.obj
 0004:000018b4       $pdata$?fin$0@?0??update_thread_multibyte_data_internal@@YAPEAU__crt_multibyte_data@@QEAU__acrt_ptd@@QEAPEAU1@@Z@4HA 000000018002d8b4     libucrt:mbctype.obj
 0004:000018c0       $pdata$__acrt_update_thread_locale_data$fin$0 000000018002d8c0     libucrt:locale_refcounting.obj
 0004:000018cc       $pdata$_fcloseall$fin$0    000000018002d8cc     libucrt:closeall.obj
 0004:000018d8       $pdata$?fin$0@?0???$?RV<lambda_751a882b2c74d4b022dec766aa51a29a>@@AEAV<lambda_628dfdc04ba53c8bfc02c9951375f3f5>@@V<lambda_f6c7be5f7998530c34de24c7437d6b54>@@@?$__crt_seh_guarded_call@H@@QEAAH$$QEAV<lambda_751a882b2c74d4b022dec766aa51a29a>@@AEAV<lambda_628dfdc04ba53c8bfc02c9951375f3f5>@@$$QEAV<lambda_f6c7be5f7998530c34de24c7437d6b54>@@@Z@4HA 000000018002d8d8     libucrt:close.obj
 0004:000018d8       $pdata$?fin$0@?0???$?RV<lambda_a37b2b86f63e897a80ea819b0eb08c01>@@AEAV<lambda_38ce7e780aa69e748d6df282ebc68efe>@@V<lambda_99fb1378e971ab6e7edea83e3a7a83a2>@@@?$__crt_seh_guarded_call@H@@QEAAH$$QEAV<lambda_a37b2b86f63e897a80ea819b0eb08c01>@@AEAV<lambda_38ce7e780aa69e748d6df282ebc68efe>@@$$QEAV<lambda_99fb1378e971ab6e7edea83e3a7a83a2>@@@Z@4HA 000000018002d8d8     libucrt:commit.obj
 0004:000018e4       $pdata$?fin$0@?0???$common_lseek@_J@@YA_JH_JH@Z@4HA 000000018002d8e4     libucrt:lseek.obj
 0004:000018e4       $pdata$_write$fin$0        000000018002d8e4     libucrt:write.obj
 0004:000018f0       $pdata$fclose$fin$0        000000018002d8f0     libucrt:fclose.obj
 0004:000018fc       $pdata$_ctrlfp$filt$0      000000018002d8fc     libucrt:fpctrl.obj
 0004:00001908       $pdata$_IsNonwritableInCurrentImage$filt$0 000000018002d908     LIBCMT:pesect.obj
 0005:00000060       $R000000                   000000018002e060     * linker generated manifest res *

 Exports

  ordinal    name

        1    _register_binding_
